(dp0
Vsecondly
p1
I373
sVtodays
p2
I912
sVlimited
p3
I1326
sVmagnetic
p4
I2402
sVsaves
p5
I941
sVcolleges
p6
I1318
sVyellow
p7
I1790
sVfour
p8
I1132
sVwoods
p9
I3013
sVsleep
p10
I1498
sVconncet
p11
I3014
sVhanging
p12
I930
sVconsists
p13
I2585
sVoldest
p14
I3864
sVsaved
p15
I752
sVaggression
p16
I3015
sVconsider
p17
I783
sVrelationships
p18
I846
sVlooking
p19
I336
sVvotes
p20
I3865
sVspellcheck
p21
I1791
sVbuddy
p22
I1674
sVinterner
p23
I3297
sVelectricity
p24
I645
sVcomputars
p25
I3016
sVbike
p26
I1267
sVbrilliant
p27
I3229
sVperfessionals
p28
I3017
sVunder
p29
I922
sVhandy-dandy
p30
I3049
sVteaching
p31
I1088
sVsorry
p32
I1444
sVworth
p33
I847
sVlitle
p34
I3868
sVacount
p35
I2953
sVupdated
p36
I1445
sVrisk
p37
I690
sVrise
p38
I2078
sVdell
p39
I3018
sVcoordinations
p40
I3862
sVdefinetly
p41
I1113
sVevery
p42
I212
sVupdates
p43
I1675
sVaffect
p44
I337
sVbringing
p45
I1548
sVvast
p46
I1676
sVchould
p47
I2804
sVtickets
p48
I1614
sVbelieved
p49
I3253
sVschool
p50
I110
sVbasics
p51
I2199
sVskills
p52
I239
sVpause
p53
I3769
sVcompanies
p54
I1294
sVsolution
p55
I1978
sVabilitys
p56
I3022
sVred
p57
I2064
sVemployees
p58
I1894
sVglued
p59
I2805
sVreliable
p60
I1491
sVclothes
p61
I1677
sVenjoy
p62
I284
sVmost-likely
p63
I3024
sVexpanded
p64
I3573
sVthrought
p65
I1733
sVtired
p66
I1048
sVphones
p67
I942
sVexcersice
p68
I2806
sVdirect
p69
I1499
sVbudget
p70
I3574
sVmessy
p71
I1282
sVsecond
p72
I289
sVstreet
p73
I2361
sVintercorse
p74
I3875
sVsustaining
p75
I3025
sVfriendships
p76
I1500
sVpasswords
p77
I2734
sVmachines
p78
I1074
sVeven
p79
I85
sVdisk
p80
I2131
sVobisity
p81
I2553
sVhjealth
p82
I3026
sVhate
p83
I2803
sV+
p84
I2403
sVselected
p85
I2615
sVrevolves
p86
I2808
sVfingers
p87
I931
sVatteck
p88
I3877
sVreasoning
p89
I2291
sVinaproprite
p90
I1980
sVlights
p91
I1446
sVrollercoaster
p92
I3754
sVabove
p93
I1456
sVdr.
p94
I1295
sVnew
p95
I146
sVtips
p96
I1447
sVincreasing
p97
I1549
sVever
p98
I225
sVtold
p99
I593
sVspecialist
p100
I3029
sVextremly
p101
I1397
sVwhose
p102
I2586
sVnever
p103
I196
sVfatter
p104
I2700
sVhere
p105
I396
sVhundreds
p106
I818
sVsocialize
p107
I870
sVmet
p108
I1089
sVprowling
p109
I3628
sVprotection
p110
I1892
sVchina
p111
I3034
sVactive
p112
I473
sVpath
p113
I2809
sVbook-marked
p114
I3151
sVcracked
p115
I2843
sVobtained
p116
I3880
sVkids
p117
I103
sVdaughter
p118
I1893
sVintead
p119
I2810
sVitems
p120
I1398
sVstudy
p121
I421
sVchanged
p122
I1212
sVreports
p123
I1133
sVcontroversy
p124
I1792
sVitunes
p125
I2405
sVsnowing
p126
I2185
sVjogging
p127
I2811
sVstressed
p128
I1895
sVmilitary
p129
I3038
sVcontroled
p130
I3039
sVreuily
p131
I3883
sVgolden
p132
I3040
sVfantastic
p133
I1981
sVcrickets
p134
I3674
sVjeaporadized
p135
I3884
sVexplained
p136
I2186
sVschooling
p137
I1296
sVfeelings
p138
I1735
sVbrought
p139
I828
sVcheats
p140
I3887
sVdeobetice
p141
I3043
sVwars
p142
I2592
sVathlete
p143
I3696
sVcounts
p144
I2589
sVtxt
p145
I3044
sVvertual
p146
I2187
sVcriminals
p147
I1297
sVspoke
p148
I2188
sVwould
p149
I56
sVarmy
p150
I1448
sVbrowse
p151
I2189
sVhospital
p152
I2079
sVcompouters
p153
I3046
sVnegative
p154
I278
sVmusic
p155
I339
sVtherefore
p156
I540
sVsurvive
p157
I1298
sVtype
p158
I134
sVuntil
p159
I883
sVwaring
p160
I3866
sVfractions
p161
I3892
sValphabet
p162
I2897
sVpaperwork
p163
I3047
sVposting
p164
I1678
sVrelax
p165
I1134
sVsuccessful
p166
I2190
sVbrings
p167
I884
sVcordnation
p168
I2917
sVyahoo
p169
I1232
sVammount
p170
I2407
sVhurt
p171
I559
sVwarn
p172
I1449
sVphone
p173
I265
sVwarm
p174
I1982
sVadult
p175
I1679
sVexcellent
p176
I2814
sVhole
p177
I2191
sVhold
p178
I1233
sVcompanys
p179
I2815
sVcomputer.this
p180
I3396
sVmust
p181
I584
sVme
p182
I133
sVsocity
p183
I2409
sVte
p184
I1844
sVword
p185
I451
sVroom
p186
I549
sVpursue
p187
I2192
sVhomepage
p188
I3438
sVwork
p189
I123
sVworl
p190
I3895
sVentertained
p191
I1736
sVtheories
p192
I3896
sVmovies
p193
I637
sVera
p194
I3897
sVinstall
p195
I2080
sVinstan
p196
I3236
sVim
p197
I806
sVneibor
p198
I3899
sVmy
p199
I36
sVexample
p200
I174
sVofte
p201
I3052
sVphane
p202
I3053
sVpollute
p203
I3900
sVgive
p204
I187
sVcalories
p205
I2112
sVhousehold
p206
I1793
sVbeautifully
p207
I3579
sVorganized
p208
I1355
sV'youtube
p209
I3869
sVrespective
p210
I3474
sVinvolve
p211
I1450
sVcurrency
p212
I3054
sVfoods
p213
I2595
sVwant
p214
I101
sVfriends/family
p215
I2500
sVkeep
p216
I155
sVcites
p217
I3902
sVadvancing
p218
I1451
sVpre-uploaded
p219
I3057
sVend
p220
I437
sVrecovery
p221
I3903
sVturn
p222
I555
sVprovide
p223
I425
sVinteracts
p224
I2094
sVtravel
p225
I512
sVsong
p226
I1039
sVnuts
p227
I3904
sVdamage
p228
I1550
sVgrows
p229
I2627
sVmachine
p230
I1794
sVhow
p231
I84
sVhot
p232
I1356
sVhop
p233
I2194
sVanswer
p234
I550
sVbeach
p235
I1399
sVsolatire
p236
I3058
sVphysicaly
p237
I2657
sVgaming
p238
I885
sVuntill
p239
I1680
sVoceans
p240
I2183
sVbeauty
p241
I1135
sVinjoying
p242
I3906
sVmess
p243
I1327
sVtyped
p244
I1136
sVafter
p245
I295
sVlab
p246
I2410
sVbefor
p247
I1737
sVwrong
p248
I471
sVjumping
p249
I2818
sVrecource
p250
I3060
sVlay
p251
I3907
sVobiste
p252
I2819
sVpresident
p253
I2596
sVlaw
p254
I1897
sVlap
p255
I3909
sVtypes
p256
I646
sVinactivity
p257
I2597
sVpurchase
p258
I2598
sVthird
p259
I454
sVargeed
p260
I3061
sVcrofing
p261
I3910
sVappreciate
p262
I2412
sVgreet
p263
I3911
sVchildhood
p264
I1757
sVcomplaining
p265
I2193
sVbaggage
p266
I3062
sVmaintain
p267
I1983
sVgreen
p268
I2413
sVkeeps
p269
I560
sVfan
p270
I3913
sVin-touch
p271
I2820
sVorder
p272
I484
sVwind
p273
I2195
sVunsteady
p274
I2821
sVemotion
p275
I3311
sVwww.dictionary.com
p276
I3063
sVmabey
p277
I3064
sValternitives
p278
I3914
sVoffice
p279
I792
sVenter
p280
I1501
sVtelecom
p281
I3065
sVover
p282
I149
sVvary
p283
I1552
sVsatisfied
p284
I2414
sVwhizzing
p285
I3066
sVbenefited
p286
I1795
sVkeyboard
p287
I913
sVtalkative
p288
I2823
sVsuceed
p289
I1825
sVbefore
p290
I296
sVfir
p291
I2196
sVfit
p292
I886
sVpersonal
p293
I551
sVscreaming
p294
I3067
sVfix
p295
I986
sVdiffrent
p296
I2197
sV,
p297
I4
sVwriting
p298
I287
sVbetter
p299
I189
sVspoken
p300
I3312
sVconnet
p301
I3068
sVdifferently
p302
I2600
sVinacitivity
p303
I3915
sVpersonas
p304
I1984
sVweeks
p305
I1452
sVdistore
p306
I3871
sVeasier
p307
I207
sVpleasurable
p308
I2601
sVkindergarden
p309
I3917
sVthen
p310
I117
sVthem
p311
I45
sVaffected
p312
I1268
sVdiseases
p313
I2081
sVenrich
p314
I2198
sVworkout
p315
I1571
sVsafe
p316
I594
sVschoold
p317
I3069
sVbreak
p318
I848
sVband
p319
I3919
sVdesiner
p320
I3020
sVeffects
p321
I194
sVthey
p322
I23
sVschools
p323
I404
sVone
p324
I82
sVthes
p325
I3920
sVther
p326
I1075
sVbank
p327
I1400
sVbread
p328
I2416
sVgrammar
p329
I1453
sVoxygen
p330
I1898
sVregularly
p331
I2775
sVroutines
p332
I3921
sVharming
p333
I2096
sVcustomizable
p334
I3021
sVfaraway
p335
I290
sVroast
p336
I2603
sVeach
p337
I246
sVaddicted
p338
I332
sVrealtives
p339
I3071
sVwent
p340
I342
sVside
p341
I446
sVmean
p342
I426
sVblinded
p343
I3074
sVwheel
p344
I2433
sVsigning
p345
I2824
sVcutomers
p346
I3072
sVcrimes
p347
I1401
sVupload
p348
I3873
sVowner
p349
I2417
sVtaught
p350
I1299
sVforgot
p351
I1019
sVconversationthem
p352
I3874
sVmessage
p353
I462
sVtwill
p354
I3531
sVgon
p355
I1328
sVaslo
p356
I3208
sVdriving
p357
I710
sVgod
p358
I1502
sVuseless
p359
I2517
sVcameras
p360
I3926
sVhooked
p361
I1616
sVenviroment
p362
I2202
sVgoodway
p363
I3961
sVstrangers
p364
I1269
sVre
p365
I2203
sVencourage
p366
I932
sVarrests
p367
I3595
sVenable
p368
I3371
sVmedicine
p369
I3928
sVgot
p370
I306
sVsize
p371
I2468
sVforth
p372
I1617
sVfoundation
p373
I2204
sVturning
p374
I1985
sVsceduled
p375
I3075
sVwritten
p376
I2564
sVhang
p377
I699
sVthreatened
p378
I2205
sVlittle
p379
I283
sVfree
p380
I553
sVappointments
p381
I3929
sVcorrects
p382
I3077
sVnto
p383
I3931
sVenhance
p384
I2587
sVestimate
p385
I3079
sVwanted
p386
I409
sVstorm
p387
I2146
sVenormous
p388
I2303
sVexposing
p389
I3082
sVafect
p390
I3933
sVcreated
p391
I902
sVstarts
p392
I1090
sVdiabetic
p393
I3084
sVmessages
p394
I759
sVdays
p395
I272
sVups
p396
I1979
sVcreates
p397
I1899
sVordering
p398
I3750
sVshipped
p399
I1553
sVmusicians
p400
I3088
sVspeedy
p401
I3089
sVisn
p402
I1454
sVsoda
p403
I2083
sVuses
p404
I443
sVwobbling
p405
I3090
sVonto
p406
I606
sVspeeds
p407
I2206
sVpurpose
p408
I1482
sValready
p409
I733
sVexcirsive
p410
I3566
sVgrade
p411
I622
sVresearches
p412
I2825
sVwast
p413
I1554
sVhearing
p414
I2826
sVchannels
p415
I3091
sVclear
p416
I2541
sVdownside
p417
I1986
sVanother
p418
I159
sVelectronic
p419
I903
sVresearched
p420
I2084
sVspecially
p421
I2184
sVhouseholds
p422
I2469
sVbasketball
p423
I1137
sVaire
p424
I2419
sVservice
p425
I2207
sVprobibly
p426
I2658
sVyouse
p427
I3092
sVcopple
p428
I3936
sVtop
p429
I1111
sVenemys
p430
I3828
sVgirls
p431
I1987
sVcommuny
p432
I3588
sVdaer
p433
I3937
sVneeded
p434
I333
sVton
p435
I1503
sVtoo
p436
I136
sVpercentage
p437
I1504
sVlegs
p438
I2209
sVbitter
p439
I3094
sVdogs
p440
I1900
sVdamaging
p441
I1155
sVlisten
p442
I694
sVloking
p443
I3095
sVcacer
p444
I3940
sVintestine
p445
I3941
sVenhancing
p446
I3942
sVkno
p447
I3096
sVfrowned
p448
I3098
sVtool
p449
I734
sVserve
p450
I1215
sVtook
p451
I772
sVwastes
p452
I1901
sVsomewhat
p453
I2608
sVwasted
p454
I2420
sVpositively
p455
I1555
sVdistance
p456
I661
sVtarget
p457
I3943
sVshowed
p458
I987
sVhike
p459
I1403
sVtree
p460
I1235
sVlikely
p461
I621
sVnations
p462
I3099
sVproject
p463
I329
sVmatter
p464
I662
sVclasses
p465
I667
sVbeging
p466
I2609
sVspeaking
p467
I2659
sVhistorical
p468
I3946
sVshowez
p469
I3101
sVfeeling
p470
I1049
sVpowers
p471
I3947
sVevey
p472
I3132
sVhaves
p473
I2422
sVlbs
p474
I2829
sVyoure
p475
I1021
sVsees
p476
I2611
sVexploring
p477
I2878
sVran
p478
I1216
sVpladerize
p479
I3477
sVmodern
p480
I760
sVmind
p481
I398
sVmine
p482
I1181
sVspent
p483
I431
sVtalking
p484
I202
sVgraphics
p485
I3794
sVinfront
p486
I1076
sVrap
p487
I2830
sVseen
p488
I427
sVseem
p489
I1020
sVmins
p490
I2612
sVtells
p491
I860
sVfaste
p492
I3104
sVrelative/friend
p493
I3105
sVaffairs
p494
I3106
sVquieter
p495
I3952
sVstrength
p496
I3953
sVwholesome
p497
I3107
sVconvenient
p498
I3954
sVresponsible
p499
I3108
sV-
p500
I668
sVsnow
p501
I2831
sVrealy
p502
I1404
sVamny
p503
I3955
sVrecommended
p504
I2210
sVsubjects
p505
I1271
sVabsorbed
p506
I3109
sVchess
p507
I1455
sVdoors
p508
I1556
sVgoofing
p509
I3165
sVrides
p510
I2085
sVreaserch
p511
I2415
sVnobody
p512
I1727
sVrwson
p513
I3166
sVmemebers
p514
I3110
sVthough
p515
I361
sVdesert
p516
I2747
sV@money
p517
I544
sVobject
p518
I2212
sVnon-communicating
p519
I3112
sVbilding
p520
I1739
sVsuppplies
p521
I3956
sVsimplify
p522
I3113
sVregular
p523
I1681
sVarguing
p524
I1469
sVaddict
p525
I3116
sVletter
p526
I354
sVphase
p527
I3960
sVeye-site
p528
I3117
sVcontain
p529
I1968
sVwebcam
p530
I698
sVhandwritting
p531
I3118
sVdon
p532
I1682
sVcops
p533
I3119
sVemailing
p534
I1381
sVmedical
p535
I1182
sVdevastating
p536
I1506
sVdog
p537
I1300
sVstating
p538
I2954
sVcares
p539
I2482
sVpoints
p540
I1988
sVtech
p541
I1557
sVcuntups
p542
I3122
sVdos
p543
I2613
sVentertaining
p544
I2086
sVmailing
p545
I2614
sVcame
p546
I530
sVsaying
p547
I491
sVdesktops
p548
I2832
sVbomb
p549
I2214
sVinspire
p550
I2833
sVlyrics
p551
I2616
sVinsects
p552
I3123
sVcontributed
p553
I3027
sVmeetings
p554
I3124
sVmeal
p555
I2282
sVbonnie
p556
I3125
sVbenificial
p557
I3126
sVpops
p558
I1741
sVdeadliest
p559
I3093
sVcolors
p560
I1742
sVradio
p561
I2834
sV@dr
p562
I3424
sVparticipate
p563
I3127
sVspecifically
p564
I3314
sVearth
p565
I1031
sVjam-packed
p566
I3964
sVenjoyed
p567
I1903
sVpemanship
p568
I3473
sVlessons
p569
I1138
sVbusy
p570
I492
sVmeny
p571
I2215
sVtypewriters
p572
I3128
sVment
p573
I2216
sVsituations
p574
I1507
sVexplain
p575
I844
sVworksheets
p576
I3786
sVhrs
p577
I2424
sVtheme
p578
I2365
sVrich
p579
I3130
sVlibary
p580
I1989
sVfolks
p581
I2618
sVhi-tect
p582
I3131
sVrice
p583
I2217
sVorganizes
p584
I3055
sVmisnt
p585
I3967
sVpersonality
p586
I2425
sVwearing
p587
I1990
sVdo
p588
I27
sVfossil
p589
I3028
sVdd
p590
I3968
sVtoll
p591
I2404
sVwatch
p592
I415
sVherd
p593
I3033
sVforemost
p594
I1798
sVpocket
p595
I3133
sVcomunication
p596
I1236
sVvariaty
p597
I3134
sVdespite
p598
I2835
sVreport
p599
I524
sVside-step
p600
I3972
sVbeleive
p601
I1272
sVnet
p602
I2218
sVunfortunately
p603
I2879
sVexersie
p604
I2426
sVchild
p605
I340
sVpearson
p606
I3975
sVcountries
p607
I538
sVtextbooks
p608
I1050
sVexcel
p609
I2485
sVinportant
p610
I1994
sVmethod
p611
I1845
sVtwice
p612
I1329
sVbad
p613
I131
sVstead
p614
I3977
sVexersize
p615
I1032
sVrelease
p616
I3135
sVsteak
p617
I3978
sVcyder
p618
I3979
sVcomitt
p619
I2559
sVtransforms
p620
I3981
sVrespond
p621
I3136
sVplaystation
p622
I3743
sVtraverse
p623
I3137
sVmandatory
p624
I3138
sVdisaster
p625
I1237
sVfascinating
p626
I3749
sVhabit
p627
I2836
sVw/
p628
I3984
sVgenerally
p629
I2002
sVesstential
p630
I3495
sVeleven
p631
I3691
sVrecieve
p632
I2087
sVchecks
p633
I1904
sVdepends
p634
I1905
sVdecided
p635
I1301
sVcholesteal
p636
I3139
sVresult
p637
I647
sVfail
p638
I1799
sVmiserable
p639
I2427
sVenought
p640
I2983
sVhammer
p641
I3140
sVbest
p642
I325
sVsubject
p643
I686
sVadout
p644
I2428
sVsaid
p645
I294
sVruns
p646
I3974
sVinappropriate
p647
I2621
sVlots
p648
I501
sVaway
p649
I124
sVreporter
p650
I3030
sVwikipedia
p651
I3141
sVfacebooks
p652
I2967
sVrushing
p653
I3168
sVgrandmother
p654
I2088
sVbenifital
p655
I3210
sVstamps
p656
I1800
sVunable
p657
I3989
sVfinger
p658
I2089
sVbatchelder
p659
I3771
sVhopefully
p660
I1508
sVtrances
p661
I3990
sVsorts
p662
I1457
sVencounters
p663
I3991
sVslugs
p664
I3992
sVdiscovery
p665
I2838
sVdiscipline
p666
I3142
sVlazy
p667
I663
sVmen
p668
I1051
sVhundred
p669
I3492
sVwa
p670
I2429
sVnature
p671
I154
sVwo
p672
I595
sVsmelled
p673
I3144
sVweak
p674
I2090
sVhowever
p675
I466
sVboss
p676
I1112
sVreflexes
p677
I1628
sVwear
p678
I1033
sVextent
p679
I1801
sVcousin
p680
I861
sVpicking
p681
I1991
sVdebt
p682
I2219
sVimprove
p683
I639
sVadapting
p684
I2780
sVreceived
p685
I3995
sVprotect
p686
I2091
sVcounselor
p687
I3324
sVpresentations
p688
I2896
sVpsychiatrist
p689
I3348
sVcountry
p690
I305
sVill
p691
I2430
sVreaders
p692
I1146
sVadventures
p693
I3145
sVagainst
p694
I1302
sVplayers
p695
I2093
sVgames
p696
I112
sVconcentrat
p697
I3146
sVrequests
p698
I3997
sVargue
p699
I1073
sVasked
p700
I829
sVcon
p701
I3998
sVsuggest
p702
I2095
sVeyesight
p703
I1156
sVtough
p704
I1405
sVagreat
p705
I3148
sVaddressing
p706
I3327
sVhae
p707
I3170
sVhers
p708
I3035
sVtons
p709
I1005
sVmassive
p710
I3308
sVviruses
p711
I1330
sVloaded
p712
I1992
sVhumming
p713
I3149
sVtrust
p714
I1218
sVspeak
p715
I1006
sVconference
p716
I2840
sVanxiouty
p717
I2622
sVfult
p718
I2298
sVco-workers
p719
I1917
sVengines
p720
I1406
sVbasis
p721
I2624
sVfro
p722
I2220
sVthree
p723
I316
sVbeen
p724
I215
sVquickly
p725
I554
sVmuch
p726
I80
sVdetrimental
p727
I1684
sVinterest
p728
I1685
sVbasic
p729
I2626
sVentetainment
p730
I3050
sVdozens
p731
I2431
sVthrew
p732
I1686
sVwebsite
p733
I343
sVobese
p734
I472
sVlife
p735
I105
sVlikly
p736
I1238
sVinnocent
p737
I2223
sVrelaxing
p738
I1621
sVdrugs
p739
I2841
sVprison
p740
I2224
sVwritting
p741
I1139
sVecofriendly
p742
I1636
sVlift
p743
I3152
sVreccomends
p744
I3746
sVpersonally
p745
I761
sVcatch
p746
I570
sVworked
p747
I3153
sVacctually
p748
I3881
sVheavier
p749
I2683
sVhas
p750
I97
sVharms
p751
I1906
sVteenager
p752
I1745
sVair
p753
I485
sVaim
p754
I849
sVnear
p755
I1183
sVneat
p756
I901
sVteachers
p757
I467
sVstopping
p758
I2842
sVexcersise
p759
I887
sVvoice
p760
I1273
sVconcludes
p761
I2971
sVleaves
p762
I1734
sVmistake
p763
I1157
sVremembering
p764
I3154
sVupgrade
p765
I2474
sVcons
p766
I1158
sVencyclopedias
p767
I3758
sVplayed
p768
I1052
sVborring
p769
I3155
sVis
p770
I17
sVbirthdates
p771
I3156
sVit
p772
I24
sVeghty
p773
I3157
sVplayer
p774
I1357
sVcant
p775
I488
sVeighteen
p776
I3158
sVexperts
p777
I402
sVbrutal
p778
I3452
sVin
p779
I21
sVconditioner
p780
I3159
sVmouse
p781
I687
sVtrusted
p782
I3160
sVif
p783
I37
sVgrown
p784
I1687
sVdamaged
p785
I2222
sVblockbuster
p786
I3759
sVtermendous
p787
I2844
sVperform
p788
I2432
sVthings
p789
I70
sVmake
p790
I113
sVairport
p791
I2702
sVentertennent
p792
I1622
sVlinked
p793
I1777
sVcomplex
p794
I2845
sVpsend
p795
I3366
sVbenefitsal
p796
I3600
sVsilly
p797
I3547
sVseveral
p798
I1509
sVshowing
p799
I1434
sVclicking
p800
I1752
sVfairly
p801
I1802
sVskyrocket
p802
I3453
sVacounts
p803
I3161
sVpick
p804
I651
sV@month
p805
I158
sVrain
p806
I2434
sVhand
p807
I221
sVwaterfall
p808
I2628
sVexcersising
p809
I1053
sVinternal
p810
I3516
sVstoff
p811
I3882
sVpositives
p812
I2846
sVopportunity
p813
I1091
sVthoughts
p814
I1304
sVkid
p815
I564
sVkept
p816
I1407
sVadictive
p817
I1744
sVstupendous
p818
I3162
sVprograms
p819
I489
sVvulgar
p820
I2767
sVfailing
p821
I1270
sVuploading
p822
I2847
sVhardflip
p823
I3163
sVocean
p824
I2097
sVacademic
p825
I3164
sVcontact
p826
I441
sVanyting
p827
I2965
sVgreatest
p828
I871
sVqualities
p829
I2629
sVmother
p830
I670
sVthe
p831
I6
sVyours
p832
I1688
sVtha
p833
I1623
sVleft
p834
I1092
sVopinions
p835
I1358
sVjust
p836
I68
sVdecreasing
p837
I2663
sVathletic
p838
I2436
sVlaptop
p839
I508
sVanti-social
p840
I2437
sVsleepy
p841
I3167
sVswearing
p842
I2812
sV@caps
p843
I15
sVsomethings
p844
I2265
sVassigned
p845
I1305
sVgrades
p846
I432
sVthanks
p847
I596
sVhuman
p848
I726
sVfacts
p849
I455
sVyes
p850
I382
sVyet
p851
I706
sVnote
p852
I2266
sVupsides
p853
I3169
sVstareing
p854
I2438
sVhad
p855
I190
sVadvancement
p856
I1620
sVspread
p857
I943
sVanywere
p858
I1558
sVeasy
p859
I282
sVtechnological
p860
I1114
sVcoqui
p861
I2225
sVels
p862
I2098
sVsupervisor
p863
I3641
sVsave
p864
I447
sVadress
p865
I2630
sVhav
p866
I3171
sVgave
p867
I1510
sVgraders
p868
I3885
sVhim/her
p869
I2065
sVadvances
p870
I711
sVpossible
p871
I614
sVpeabody
p872
I3886
sVpossibly
p873
I1054
sVboxes
p874
I2439
sVloding
p875
I3173
sVwrold
p876
I3174
sVrevision
p877
I3649
sVposes
p878
I2226
sVadvanced
p879
I625
sVapart
p880
I974
sVdesire
p881
I1803
sVtexts
p882
I2921
sVbobby
p883
I3175
sVtheyre
p884
I2440
sVspecific
p885
I975
sVremind
p886
I3176
sVsteps
p887
I2227
sVzombies
p888
I2631
sVnight
p889
I700
sVhung
p890
I2849
sVsecurity
p891
I1908
sVbying
p892
I3344
sVbutterfly
p893
I3334
sVbeneficial
p894
I493
sVright
p895
I218
sVold
p896
I256
sVdeal
p897
I862
sVpeople
p898
I12
sVsocializaing
p899
I3456
sVdeaf
p900
I2632
sVdead
p901
I914
sVhassle
p902
I1909
sVparagraphs
p903
I1276
sVdear
p904
I114
sVpain
p905
I1467
sVadvertise
p906
I2100
sVtotal
p907
I3888
sVfor
p908
I26
sVgrading
p909
I1997
sVelectromagnetic
p910
I2633
sVear
p911
I2582
sVopposite
p912
I1565
sV/
p913
I1274
sVcreative
p914
I1804
sVcontributing
p915
I3177
sVeverything
p916
I247
sVasking
p917
I850
sVpinball
p918
I3597
sVoffices
p919
I2848
sVcompletly
p920
I1559
sVencourages
p921
I2887
sVhabbits
p922
I1998
sVneatly
p923
I1165
sVdeleted
p924
I2850
sVcompress
p925
I3728
sVburn
p926
I1459
sVshifting
p927
I3179
sVtecnollogy
p928
I2664
sVlosing
p929
I888
sVinformaion
p930
I3459
sVpost
p931
I753
sVsuper
p932
I1306
sVplug
p933
I1746
sVcouses
p934
I2561
sVnatuer
p935
I2851
sVattacks
p936
I2852
sVtheirs
p937
I1408
sVdollars
p938
I1359
sVmonths
p939
I1275
sVo
p940
I3181
sVtrustworthy
p941
I2853
sVlikley
p942
I2813
sVdinner
p943
I691
sVplus
p944
I712
sVimportantly
p945
I949
sVsuggestions
p946
I3469
sVautomatically
p947
I2635
sVmatch
p948
I1655
sVraised
p949
I3182
sVmotivate
p950
I3889
sVwhats
p951
I534
sVwasting
p952
I597
sVpays
p953
I2441
sVawnser
p954
I2101
sVbound
p955
I2443
sVson
p956
I1240
sVdown
p957
I310
sVthankful
p958
I2229
sVbeings
p959
I2230
sVmagazines
p960
I3184
sVsow
p961
I3185
sVbalanced
p962
I1910
sVreducing
p963
I3186
sVallways
p964
I2444
sVmethods
p965
I3608
sVparagrahs
p966
I3187
sVwan
p967
I1159
sVrely
p968
I1034
sVwaits
p969
I3188
sVsupport
p970
I513
sVconstantly
p971
I933
sVpossitive
p972
I1077
sVsunlight
p973
I2102
sVclass
p974
I413
sVavail
p975
I3190
sVstuck
p976
I1331
sVnow-a-days
p977
I1626
sVeditor
p978
I807
sVway
p979
I88
sVcausin
p980
I3191
sVresulted
p981
I1805
sVcall
p982
I392
sVwat
p983
I1911
sVwas
p984
I118
sVwar
p985
I1410
sVhappy
p986
I934
sVhead
p987
I735
sVsprine
p988
I3611
sVform
p989
I808
sVoffer
p990
I890
sVforming
p991
I3193
sVbecoming
p992
I616
sVlawn
p993
I3336
sVplaning
p994
I2743
sVwireless
p995
I2854
sVnotifications
p996
I2232
sVtalents
p997
I3194
sVuncle
p998
I1219
sVsocietys
p999
I2406
sVstand
p1000
I1525
sVtrue
p1001
I545
sVfuter
p1002
I3763
sVnationwide
p1003
I3143
sVlaye
p1004
I3195
sVprevents
p1005
I1690
sVinside
p1006
I414
sVattached
p1007
I2477
sVdevices
p1008
I1055
sVtell
p1009
I300
sVresson
p1010
I1512
sVcancers
p1011
I1913
sVmighty
p1012
I3197
sVdeatails
p1013
I3198
sS'<unk>'
p1014
I1
sVproud
p1015
I3199
sVfinfished
p1016
I3200
sVguidance
p1017
I3966
sVstatistic
p1018
I1996
sVadvancements
p1019
I2855
sVproven
p1020
I988
sV''
p1021
I41
sVsometime
p1022
I1513
sVexist
p1023
I1806
sVfashioned
p1024
I2001
sVdoor
p1025
I2302
sVannoying
p1026
I2857
sVtrip
p1027
I640
sVphysical
p1028
I944
sVno
p1029
I137
sVna
p1030
I872
sVfar-away
p1031
I2637
sVwhen
p1032
I67
sVactor
p1033
I3201
sVreality
p1034
I945
sVcordonation
p1035
I2446
sVsetting
p1036
I1748
sVrole
p1037
I1241
sVholding
p1038
I1627
sVbenefiting
p1039
I1242
sVtest
p1040
I794
sVbulling
p1041
I904
sVbecuase
p1042
I2236
sVsmell
p1043
I2237
sVrealize
p1044
I791
sVunbalanced
p1045
I2858
sVpicture
p1046
I873
sV't
p1047
I3203
sV's
p1048
I66
sVsurprise
p1049
I2605
sVfootball
p1050
I1332
sVupdate
p1051
I2447
sVdiet
p1052
I1461
sVbelive
p1053
I617
sV'd
p1054
I648
sVinventions.with
p1055
I3048
sVprofessional
p1056
I1924
sV'm
p1057
I315
sVaware
p1058
I1896
sVdied
p1059
I1691
sVyounger
p1060
I923
sVlonger
p1061
I736
sVsendin
p1062
I3205
sVdaily
p1063
I552
sVreception
p1064
I2448
sVtime
p1065
I31
sVpush
p1066
I1360
sVserious
p1067
I924
sVbanners
p1068
I3206
sVcoordition
p1069
I3207
sVstick
p1070
I1347
sVneighbors
p1071
I2859
sVhaveing
p1072
I1663
sVaddictiing
p1073
I3209
sVchilds
p1074
I1807
sVswitched
p1075
I2449
sVdance
p1076
I2450
sVskip
p1077
I2639
sVcyberbully
p1078
I3773
sVglobal
p1079
I1412
sVfocus
p1080
I1333
sVleads
p1081
I1115
sVpeole
p1082
I1692
sVskin
p1083
I2003
sVcolaps/
p1084
I3212
sVchair
p1085
I989
sVrot
p1086
I2861
sVcertainly
p1087
I1413
sVsuicide
p1088
I963
sVdepend
p1089
I1693
sVnegitive
p1090
I2004
sVfoe
p1091
I3178
sVgraph
p1092
I1915
sVflash
p1093
I2452
sVfather
p1094
I863
sVvey
p1095
I3213
sVenvironment
p1096
I585
sVanswered
p1097
I1184
sVfinally
p1098
I301
sVoz
p1099
I3709
sVeffeciently
p1100
I3214
sVidentity
p1101
I1939
sVverbally
p1102
I3215
sVshoot
p1103
I2640
sVdownloading
p1104
I2238
sVadvantage
p1105
I586
sVcheap
p1106
I2239
sVintrested
p1107
I3973
sVtwo-way
p1108
I3216
sVconfidence
p1109
I3687
sVadictied
p1110
I2240
sVchoice
p1111
I831
sVstays
p1112
I3217
sVcook
p1113
I1749
sVjoin
p1114
I1214
sVtrouble
p1115
I630
sVblast
p1116
I1916
sVexact
p1117
I1560
sVminute
p1118
I739
sVcool
p1119
I671
sVdrag
p1120
I2544
sVsolves
p1121
I3219
sVlevel
p1122
I2863
sVdid
p1123
I167
sVdie
p1124
I915
sVbrother
p1125
I874
sVleave
p1126
I740
sVitem
p1127
I1462
sVbikes
p1128
I1883
sVteam
p1129
I2241
sVquick
p1130
I587
sVloads
p1131
I2242
sVlisening
p1132
I3222
sVround
p1133
I2005
sVunaware
p1134
I3223
sVprevent
p1135
I935
sVtalked
p1136
I1093
sVsays
p1137
I276
sVregret
p1138
I1629
sVvideochat
p1139
I3224
sVcollage
p1140
I1808
sVdiscover
p1141
I1277
sVcyber
p1142
I526
sVsign
p1143
I2243
sVcaptures
p1144
I3982
sVcost
p1145
I680
sVdesigns
p1146
I3727
sVroof
p1147
I2594
sVcorner
p1148
I2667
sVrun
p1149
I581
sVchicken
p1150
I2989
sVinterduction
p1151
I3225
sVeducate
p1152
I2244
sVappear
p1153
I2455
sVjeopardy
p1154
I3226
sVohter
p1155
I2245
sVremain
p1156
I2035
sVdebate
p1157
I1778
sVcurrent
p1158
I1056
sVgoes
p1159
I607
sVoout
p1160
I3615
sVreply
p1161
I976
sVfalling
p1162
I1809
sVgeography
p1163
I2247
sVboost
p1164
I1810
sVfilled
p1165
I2641
sVsupporting
p1166
I1630
sVpose
p1167
I1624
sValwasy
p1168
I3872
sVwelmart
p1169
I3227
sVgrandparents
p1170
I1361
sVbacause
p1171
I2866
sVsoarces
p1172
I3228
sVunderstanding
p1173
I1362
sVwater
p1174
I2104
sVconsult
p1175
I3509
sVentertain
p1176
I1751
sVbaseball
p1177
I588
sVgroups
p1178
I2105
sVaddress
p1179
I1363
sValone
p1180
I891
sValong
p1181
I832
sVteaches
p1182
I406
sVteacher
p1183
I495
sVchange
p1184
I433
sVwait
p1185
I633
sVbox
p1186
I1094
sVsending
p1187
I905
sVbu
p1188
I3616
sVhealthy
p1189
I351
sVimpacted
p1190
I2248
sVrethink
p1191
I2867
sVwherever
p1192
I2249
sVcommonly
p1193
I3230
sVourself
p1194
I3231
sVdetonate
p1195
I2456
sVaccomplished
p1196
I3232
sVraining
p1197
I3012
sVusually
p1198
I518
sVstudies
p1199
I592
sVbuit
p1200
I3466
sVtasks
p1201
I833
sVuseful
p1202
I372
sVcanned
p1203
I3589
sVextra
p1204
I906
sVprefer
p1205
I892
sVcansen
p1206
I3567
sVlogical
p1207
I3233
sVbloody
p1208
I3234
sVmarvelous
p1209
I3235
sVcivilizations
p1210
I2306
sVsuicides
p1211
I1631
sVcomplates
p1212
I3499
sVrarely
p1213
I1160
sVmarket
p1214
I2457
sVhotels
p1215
I1694
sVeverybody
p1216
I965
sVaimlessly
p1217
I3342
sVcrammed
p1218
I3237
sVlegitamite
p1219
I3238
sVworking
p1220
I480
sVprove
p1221
I1161
sVsake
p1222
I2540
sVpositive
p1223
I132
sVangry
p1224
I2250
sVscan
p1225
I3468
sVvisit
p1226
I664
sVsports
p1227
I345
sVlive
p1228
I214
sVprey
p1229
I2106
sVopposed
p1230
I2251
sVwondering
p1231
I1243
sVwww.mocpages.com
p1232
I3725
sVenviromental-friendly
p1233
I3239
sVthru
p1234
I2646
sVlovind
p1235
I3240
sVtoday
p1236
I307
sVpeope
p1237
I2252
sVintroducing
p1238
I3241
sV``
p1239
I79
sVsharing
p1240
I2647
sVafford
p1241
I1562
sVpeopl
p1242
I1812
sVtundra
p1243
I3242
sVclue
p1244
I2458
sVconsoles
p1245
I2547
sVeverywhere
p1246
I893
sVpossative
p1247
I3244
sVriding
p1248
I2381
sVthig
p1249
I2369
sVcases
p1250
I1334
sVinofrmation
p1251
I3470
sVeffort
p1252
I1696
sVeasiest
p1253
I2253
sVbehalf
p1254
I3245
sVfly
p1255
I2006
sVgadgets
p1256
I2816
sVvalued
p1257
I3248
sVfourths
p1258
I3249
sVwouldnt
p1259
I1657
sVcar
p1260
I681
sVoriginally
p1261
I3250
sVpretend
p1262
I1813
sVbelieves
p1263
I3251
sVreviews
p1264
I2648
sVofr
p1265
I3814
sVprinting
p1266
I3252
sVcan
p1267
I20
sVcam
p1268
I1230
sVgrowing
p1269
I864
sVmaking
p1270
I393
sVchimny
p1271
I3254
sVnewspapers
p1272
I1625
sVproffessor
p1273
I3471
sVheart
p1274
I946
sVcrazy
p1275
I1463
sVcitizens
p1276
I1239
sVfigure
p1277
I875
sVawesome
p1278
I1814
sVlegue
p1279
I3256
sVtopic
p1280
I407
sVheard
p1281
I598
sS'<pad>'
p1282
I0
sVhardrive
p1283
I2459
sVre-establish
p1284
I3257
sVallowed
p1285
I990
sVoffense
p1286
I3258
sVevidently
p1287
I3259
sVlistens
p1288
I3260
sVpink
p1289
I2649
sVproductive
p1290
I1918
sVinnappriate
p1291
I3261
sVoverreacting
p1292
I2650
sVmeans
p1293
I678
sVwrite
p1294
I302
sVtill
p1295
I1697
sVvital
p1296
I1335
sVsomebodys
p1297
I3056
sVricefields
p1298
I3265
sVrecepie
p1299
I3755
sVconvienient
p1300
I1364
sVeconomy
p1301
I2460
sVmap
p1302
I1095
sVstaying
p1303
I763
sVobease
p1304
I2270
sVexplorer
p1305
I2254
sVhuge
p1306
I424
sVcranky
p1307
I2383
sVspot
p1308
I1563
sVcamray
p1309
I3266
sVmeany
p1310
I2384
sVapplications
p1311
I1244
sVbirthday
p1312
I1775
sVmad
p1313
I1962
sVislands
p1314
I2634
sVdate
p1315
I1140
sVsuch
p1316
I184
sVdata
p1317
I1057
sVgrow
p1318
I1185
sVman
p1319
I916
sVstress
p1320
I1815
sVsurfing
p1321
I1816
sVnatural
p1322
I782
sVremember
p1323
I347
sVwhenever
p1324
I1162
sVmaybe
p1325
I330
sVvactions
p1326
I2652
sVinform
p1327
I1220
sVsi
p1328
I3268
sVso
p1329
I43
sVtommorrows
p1330
I3269
sVsnowed
p1331
I3270
sVdefinitions
p1332
I1564
sVbeacuse
p1333
I2107
sVpulled
p1334
I3271
sVtalk
p1335
I76
sVoutlet
p1336
I3350
sVunnamed
p1337
I3301
sVbreaking
p1338
I2139
sVwebpage
p1339
I2255
sVindeed
p1340
I2461
sVmainly
p1341
I1755
sVunacceptable
p1342
I2256
sVyears
p1343
I318
sVprofessors
p1344
I3273
sVbrain
p1345
I618
sVepisodes
p1346
I2257
sVhabbit
p1347
I1817
sVcuts
p1348
I2009
sVmanagers
p1349
I2462
sVcold
p1350
I1078
sVstill
p1351
I250
sVbirds
p1352
I2463
sVsoftwear
p1353
I3275
sVpolice
p1354
I1186
sVthank
p1355
I456
sVwheight
p1356
I1764
sVinteresting
p1357
I1096
sVtorn
p1358
I3276
sVtroubles
p1359
I3277
sVamazing
p1360
I563
sVdecreases
p1361
I2258
sVforms
p1362
I1278
sVwindow
p1363
I1919
sVoffers
p1364
I1514
sVhighper
p1365
I3279
sVpowiar
p1366
I3280
sVmail
p1367
I809
sVmain
p1368
I474
sVdecades
p1369
I3281
sVobessity
p1370
I2228
sVhappened
p1371
I609
sVlonely
p1372
I2108
sVthereby
p1373
I3283
sVmatches
p1374
I3284
sVconversations
p1375
I1221
sVsooner
p1376
I2653
sVnation
p1377
I1819
sVlunch
p1378
I1187
sVtommorrow
p1379
I2873
sVendure
p1380
I3100
sVbase
p1381
I2512
sVhalf
p1382
I546
sVnot
p1383
I33
sVcompture
p1384
I2373
sVnow
p1385
I108
sVkilled
p1386
I917
sVnor
p1387
I1415
sVmatched
p1388
I3285
sVwont
p1389
I599
sVterm
p1390
I2109
sVname
p1391
I610
sVdrop
p1392
I1163
sVlocked
p1393
I3051
sVpossibilities
p1394
I1515
sVhandwrite
p1395
I3288
sVcarasaprel
p1396
I3289
sVrelize
p1397
I2721
sVbowling
p1398
I3290
sVselfesteem
p1399
I3059
sVindividually
p1400
I2874
sVwrite/type
p1401
I3292
sVsquare
p1402
I1820
sVretrieve
p1403
I3293
sVfired
p1404
I2464
sVelephants
p1405
I2581
sVrevised
p1406
I3295
sVconstanly
p1407
I3520
sVyeah
p1408
I2465
sVwrap
p1409
I2231
sVcatching
p1410
I1116
sVsoembody
p1411
I3296
sVyear
p1412
I419
sVhappen
p1413
I504
sVmorning
p1414
I2015
sVobsession
p1415
I2875
sVdisasters
p1416
I1365
sVamusement
p1417
I2466
sVtried
p1418
I1426
sVliving
p1419
I623
sVshown
p1420
I1079
sVaccomplish
p1421
I1416
sVreasearch
p1422
I1336
sVspace
p1423
I1417
sVfurthermore
p1424
I723
sVincrease
p1425
I573
sVattracted
p1426
I2111
sVseriously
p1427
I2261
sVstupid
p1428
I1470
sVimperative
p1429
I2011
sVmakeing
p1430
I2467
sVhacked
p1431
I1756
sVinternet
p1432
I94
sVsuggesting
p1433
I3298
sVcomptuer
p1434
I851
sVinstructions
p1435
I2932
sVcorrect
p1436
I1097
sVshows
p1437
I486
sVearlier
p1438
I2656
sVples
p1439
I3299
sVcars
p1440
I947
sVmillion
p1441
I835
sVpossibility
p1442
I2262
sVquite
p1443
I936
sVwits
p1444
I3411
sVadvantages
p1445
I948
sVbesides
p1446
I991
sVgrandma
p1447
I2263
sVpoems
p1448
I3300
sVrescent
p1449
I3045
sVseventy
p1450
I3302
sVcard
p1451
I1164
sVcare
p1452
I577
sVraed
p1453
I3303
sVadvance
p1454
I966
sVstatements
p1455
I3183
sVlanguage
p1456
I727
sVilleagle
p1457
I2593
sVlocations
p1458
I3305
sVcomunicate
p1459
I1308
sVdownsides
p1460
I3306
sVexremely
p1461
I3307
sVthing
p1462
I121
sVplace
p1463
I260
sVhusband
p1464
I1420
sVswing
p1465
I2877
sVskiing
p1466
I3211
sVmisused
p1467
I3309
sVthink
p1468
I57
sVjumbled
p1469
I3310
sVfirst
p1470
I170
sVblind
p1471
I1921
sVtennis
p1472
I1632
sVsaving
p1473
I1366
sVcyberbulling
p1474
I1418
sVwaves
p1475
I2309
sVmuchn
p1476
I3313
sVyourself
p1477
I370
sVlat
p1478
I3908
sVstalk
p1479
I2939
sVamericans
p1480
I1465
sVlong
p1481
I237
sVdirectly
p1482
I1922
sVspanish
p1483
I1367
sVimpossible
p1484
I1419
sVsounds
p1485
I1309
sVfight
p1486
I1409
sVopen
p1487
I718
sVtomorrow
p1488
I1633
sVripping
p1489
I3315
sVmillions
p1490
I571
sVcity
p1491
I1368
sVgiven
p1492
I876
sVchecked
p1493
I1634
sVoccupy
p1494
I3627
sVcaught
p1495
I1635
sVeurope
p1496
I3549
sVanyone
p1497
I428
sVplains
p1498
I2607
sVdraft
p1499
I3316
sVrecipies
p1500
I2411
sVintill
p1501
I3317
sVtyping
p1502
I266
sVwhite
p1503
I1758
sVcite
p1504
I2264
sVfriend
p1505
I210
sVgives
p1506
I403
sVthas
p1507
I3102
sVbenifits
p1508
I1008
sVeyes
p1509
I311
sVmostly
p1510
I561
sVthat
p1511
I13
sVbrains
p1512
I2470
sVthay
p1513
I1923
sVhurtful
p1514
I1796
sVproving
p1515
I3318
sVinducieng
p1516
I3080
sVridiculous
p1517
I3319
sVdelive
p1518
I3320
sVbutt
p1519
I2617
sVcopy
p1520
I1222
sVthan
p1521
I128
sVinternet/computer
p1522
I3787
sVpopulation
p1523
I925
sVwide
p1524
I926
sVtelevision
p1525
I1080
sVbored
p1526
I465
sVeffective
p1527
I1551
sVdepressed
p1528
I1141
sVrequire
p1529
I1223
sVhandmade
p1530
I2445
sVnon-stop
p1531
I3322
sVrehab
p1532
I3323
sVfuture
p1533
I541
sVgermany
p1534
I3959
sVventure
p1535
I2660
sVwere
p1536
I179
sVcards
p1537
I1759
sVoutcome
p1538
I2880
sVwandering
p1539
I3325
sV1/
p1540
I1698
sVtheis
p1541
I2827
sVand
p1542
I8
sVgathering
p1543
I2012
sVillness
p1544
I3328
sVvidecam
p1545
I3329
sVtopics
p1546
I1466
sVturned
p1547
I1821
sVargument
p1548
I962
sValley
p1549
I3331
sVsad
p1550
I1059
sVsay
p1551
I109
sVenourmous
p1552
I2881
sVrent
p1553
I2882
sVans
p1554
I2883
sVbreakfast
p1555
I2471
sVsaw
p1556
I1060
sVany
p1557
I191
sVelsewhere
p1558
I3078
sVupwake
p1559
I3333
sVefficient
p1560
I1310
sVreasonable
p1561
I3922
sVideas
p1562
I572
sVzoo
p1563
I1822
sVe-mailing
p1564
I2014
sVequipment
p1565
I1637
sVpotential
p1566
I2661
sVtake
p1567
I144
sVonline
p1568
I81
sVwanting
p1569
I2267
sVwonder
p1570
I1190
sVchannel
p1571
I1699
sVsurf
p1572
I1037
sVurge
p1573
I2884
sVbegin
p1574
I795
sVsure
p1575
I369
sVmultiple
p1576
I977
sVtrace
p1577
I2662
sVnormal
p1578
I1468
sVtrack
p1579
I762
sVprice
p1580
I724
sVknew
p1581
I719
sVbullyed
p1582
I1823
sVclearer
p1583
I2113
sVpaid
p1584
I1999
sVmost/likely
p1585
I3180
sVabut
p1586
I2268
sV@num
p1587
I77
sVprinted
p1588
I1566
sVsheets
p1589
I2665
sVpleasure
p1590
I1710
sVmultiply
p1591
I2604
sVamerica
p1592
I1638
sVpages
p1593
I992
sVinvolving
p1594
I3958
sVdefinatly
p1595
I3192
sV@city
p1596
I2666
sVforever
p1597
I1166
sVespecially
p1598
I565
sVaverage
p1599
I649
sVlater
p1600
I819
sVabiity
p1601
I3337
sVdrive
p1602
I742
sVmessier
p1603
I3338
sVrecieves
p1604
I2599
sVslaves
p1605
I3204
sVhear
p1606
I509
sVtypically
p1607
I2472
sVfiling
p1608
I2473
sVlaws
p1609
I1245
sVshop
p1610
I1188
sVwalking
p1611
I1567
sVshot
p1612
I1311
sVshow
p1613
I352
sVmagazeens
p1614
I3339
sVrecipe
p1615
I2114
sVfriction
p1616
I3340
sVdiscovered
p1617
I1639
sVdeveloped
p1618
I2926
sVbright
p1619
I1568
sVhack
p1620
I1561
sVhace
p1621
I2115
sVaggressive
p1622
I1824
sVforecast
p1623
I2669
sVrealizing
p1624
I2246
sVslow
p1625
I743
sVfavor
p1626
I2990
sV..etc
p1627
I3341
sVenough
p1628
I270
sVcrime
p1629
I1516
sVgoind
p1630
I1695
sVfoward
p1631
I3343
sVonly
p1632
I126
sVgoing
p1633
I129
sVblack
p1634
I2668
sVinventions
p1635
I1279
sVoutrage
p1636
I3345
sVrobe
p1637
I3346
sVawat
p1638
I3988
sVrecipes
p1639
I1726
sVdispute
p1640
I3347
sVclosed
p1641
I1781
sVget
p1642
I44
sVrevolutionized
p1643
I2269
sVexellent
p1644
I1607
sVlaunage
p1645
I2885
sVtruly
p1646
I2475
sVexersiing
p1647
I3349
sVnearly
p1648
I1189
sVblocking
p1649
I3894
sVobeast
p1650
I1569
sVcelebrate
p1651
I3278
sVasteem
p1652
I3945
sVresource
p1653
I1061
sVsettings
p1654
I3351
sVisnt
p1655
I2927
sVworried
p1656
I894
sVplanned
p1657
I3807
sVmiles
p1658
I810
sVbombs
p1659
I3352
sVcoordiantion
p1660
I1471
sVwhere
p1661
I183
sVvision
p1662
I1370
sVpicnic
p1663
I2886
sVsiblings
p1664
I2918
sVphysically
p1665
I950
sVcommitted
p1666
I2507
sVrelative
p1667
I1098
sVunfit
p1668
I2478
sVcollege
p1669
I395
sVanyways
p1670
I3354
sVsurgery
p1671
I1570
sVsport
p1672
I951
sVfirsty
p1673
I3505
sVconcern
p1674
I754
sVyouself
p1675
I2271
sVbenefical
p1676
I2959
sVsodotea
p1677
I3356
sVboredome
p1678
I3486
sVthease
p1679
I3357
sVcamping
p1680
I2016
sVways
p1681
I213
sValarming
p1682
I2272
sVdefinite
p1683
I2117
sVsites
p1684
I355
sVinsted
p1685
I2118
sVoutside
p1686
I139
sVun
p1687
I1595
sVwork-out
p1688
I2479
sVaproximately
p1689
I3723
sVbetween
p1690
I655
sVaffecting
p1691
I1246
sVnicest
p1692
I3196
sVteens
p1693
I417
sVreading
p1694
I280
sVacross
p1695
I603
sVcapible
p1696
I3353
sVdieing
p1697
I3487
sVnotice
p1698
I1280
sVjobs
p1699
I298
sVscreen
p1700
I397
sVfaded
p1701
I3639
sVinjoy
p1702
I2273
sVhorriable
p1703
I3359
sVcingle
p1704
I3748
sVkilling
p1705
I1700
sVblame
p1706
I952
sVadept
p1707
I3360
sVinapropriate
p1708
I1640
sVconcentrate
p1709
I3361
sVdecison
p1710
I3362
sVarticle
p1711
I701
sVcities
p1712
I2888
sVcome
p1713
I274
sVpostage
p1714
I2889
sVreaction
p1715
I2890
sVmant
p1716
I3363
sVattatched
p1717
I3423
sVmany
p1718
I71
sVvoicemail
p1719
I2276
sVaccording
p1720
I1701
sVpuppy
p1721
I3426
sVpurposs
p1722
I3073
sVagains
p1723
I3852
sVsomewhere
p1724
I1154
sVs
p1725
I1247
sVmane
p1726
I3365
sVlong-distance
p1727
I2636
sVbackpack
p1728
I3367
sVcomes
p1729
I442
sVnatures
p1730
I3037
sVamong
p1731
I2672
sVmadness
p1732
I1925
sVcancer
p1733
I1312
sVwhenit
p1734
I3368
sVperiod
p1735
I2891
sVpop
p1736
I1337
sVtehre
p1737
I2892
sVlearning
p1738
I269
sVmoreover
p1739
I2481
sVpoll
p1740
I1224
sVworthwhile
p1741
I2960
sVcaring
p1742
I1826
sVarts
p1743
I2686
sVlifes
p1744
I2119
sVgrand
p1745
I2536
sVcapable
p1746
I2017
sVstretch
p1747
I2275
sVwest
p1748
I3369
sVinformed
p1749
I1421
sVvacation
p1750
I574
sVevr
p1751
I3671
sVdangers
p1752
I1641
sVnit
p1753
I2435
sVstaring
p1754
I1150
sVhardly
p1755
I1225
sVsystems
p1756
I2508
sVwants
p1757
I837
sVdetach
p1758
I2709
sVeducated
p1759
I1313
sVshopping
p1760
I865
sVunsafe
p1761
I1596
sVthousand
p1762
I1827
sVtraget
p1763
I3916
sVwalmart
p1764
I3587
sVlaptops
p1765
I1099
sVphotos
p1766
I994
sVfigured
p1767
I3782
sVwake
p1768
I2674
sVtextbook
p1769
I1422
sVcareful
p1770
I1518
sVtravelling
p1771
I3489
sVthose
p1772
I205
sVcountless
p1773
I1926
sVsound
p1774
I1314
sVmyself
p1775
I692
sVthese
p1776
I98
sVsex
p1777
I3541
sVeasyer
p1778
I1828
sVresturant
p1779
I3372
sVn't
p1780
I32
sVproves
p1781
I2233
sVtutors
p1782
I2480
sVnewspaper
p1783
I168
sVsituation
p1784
I1829
sVfancey
p1785
I3374
sVinvited
p1786
I3784
sVveru
p1787
I3901
sVive
p1788
I3375
sVnecesity
p1789
I2542
sVeventually
p1790
I1100
sVcharacteristics
p1791
I2675
sVtelephone
p1792
I1118
sVsleeping
p1793
I2676
sVmiddle
p1794
I1022
sVfinnaly
p1795
I2677
sVsomeone
p1796
I200
sVdrug
p1797
I1887
sVcomuter
p1798
I1519
sVloosing
p1799
I2678
sVreturn
p1800
I2931
sVwisely
p1801
I1315
sVtechnology
p1802
I140
sVeveryday
p1803
I229
sVworry
p1804
I797
sVdifferent
p1805
I193
sVdevelop
p1806
I1081
sVdoctor
p1807
I1191
sVpay
p1808
I429
sVgranted
p1809
I2898
sVsame
p1810
I281
sVcheck
p1811
I377
sVperents
p1812
I3376
sVeverday
p1813
I3377
sVspeech
p1814
I2708
sVarguments
p1815
I2679
sVstruggling
p1816
I2680
sVdocument
p1817
I1423
sVpal
p1818
I2681
sVevents
p1819
I978
sVweek
p1820
I589
sVfinish
p1821
I798
sVdisadvantages
p1822
I1338
sVenjoyment
p1823
I2484
sVboosted
p1824
I3379
sVpetroleum
p1825
I3460
sVlogos
p1826
I3247
sVscientist
p1827
I1533
sVpersons
p1828
I1038
sVrunning
p1829
I708
sVwired
p1830
I3380
sVadvertisement
p1831
I2277
sVchanging
p1832
I1522
sVrecuit
p1833
I3381
sVtotally
p1834
I1702
sVmentally
p1835
I1928
sVlive-streaming
p1836
I3382
sVenviorment
p1837
I2671
sVelectrion
p1838
I3383
sVpersonly
p1839
I3384
sVfloor
p1840
I2234
sVgenis
p1841
I3385
sVsevere
p1842
I1929
sVwithout
p1843
I125
sVsolve
p1844
I1703
sVgrumpy
p1845
I3386
sVconvient
p1846
I1371
sVoutdoor
p1847
I1704
sVgangs
p1848
I2018
sVbeing
p1849
I145
sVmoney
p1850
I291
sVsights
p1851
I1316
sVrest
p1852
I744
sVpersonaly
p1853
I1831
sVviolent
p1854
I2900
sVkill
p1855
I979
sVaspect
p1856
I2019
sVtouch
p1857
I238
sVspeed
p1858
I953
sVhalfway
p1859
I2120
sVblow
p1860
I2901
sVdeath
p1861
I1643
sVlitte
p1862
I3388
sVthinking
p1863
I755
sVcomptuers
p1864
I2020
sVseems
p1865
I927
sVexcept
p1866
I1339
sVdesktop
p1867
I1424
sVblog
p1868
I2121
sVinstrument
p1869
I3390
sVlets
p1870
I285
sVdecorator
p1871
I2602
sVexercis
p1872
I1372
sVbraindead
p1873
I1930
sVhandeye
p1874
I2902
sVcareers
p1875
I2021
sVreal
p1876
I387
sVaspects
p1877
I1572
sVaround
p1878
I185
sVcompter
p1879
I1760
sVread
p1880
I273
sVpapers
p1881
I525
sVdark
p1882
I1248
sVfindout
p1883
I3202
sVtraffic
p1884
I3392
sVirrestable
p1885
I3393
sVlistening
p1886
I1082
sVhatefull
p1887
I3394
sVworld
p1888
I102
sVdare
p1889
I1573
sVglaciers
p1890
I3878
sVfortune
p1891
I3603
sVstranger
p1892
I2279
sVpounds
p1893
I1281
sVphotographs
p1894
I2792
sVbuddies
p1895
I2122
sVgyms
p1896
I2344
sVserves
p1897
I2684
sV've
p1898
I374
sVbenefit
p1899
I223
sVeither
p1900
I475
sVclay
p1901
I3397
sVtower
p1902
I2123
sVinter
p1903
I3398
sVreduced
p1904
I2903
sVweve
p1905
I2720
sVverbal
p1906
I2486
sVexposed
p1907
I2349
sVcomuters
p1908
I1832
sVdrasticlly
p1909
I3667
sVdraw
p1910
I1945
sVarticol
p1911
I2124
sVrespect
p1912
I2170
sVimages
p1913
I1472
sVtreatments
p1914
I1847
sVthinks
p1915
I1574
sVprovided
p1916
I2904
sVwhould
p1917
I1833
sVmood
p1918
I2905
sVperfer
p1919
I2906
sVmemories
p1920
I1142
sVtube
p1921
I2280
sVstops
p1922
I2125
sVprovides
p1923
I1226
sVmemoried
p1924
I3400
sVrefer
p1925
I3401
sVsaftey
p1926
I2487
sVfelt
p1927
I1460
sVscientific
p1928
I1834
sVpower
p1929
I745
sVseconds
p1930
I764
sVthefts
p1931
I2963
sVfitness
p1932
I1706
sVcommunicate
p1933
I226
sVrobots
p1934
I3652
sVbroken
p1935
I2022
sVhectic
p1936
I2488
sVhealthiest
p1937
I2126
sVseond
p1938
I3403
sVwares
p1939
I3707
sVon
p1940
I11
sVstone
p1941
I2281
sVok
p1942
I2127
sVoh
p1943
I980
sVothe
p1944
I2023
sVof
p1945
I16
sVviolence
p1946
I1473
sVfavorite
p1947
I650
sVbonding
p1948
I2156
sVthousands
p1949
I675
sVpractical
p1950
I2688
sVgreatly
p1951
I619
sVneighbor
p1952
I3404
sVact
p1953
I1062
sVou
p1954
I2907
sVbond
p1955
I1374
sVor
p1956
I28
sVroad
p1957
I2024
sVexmple
p1958
I3719
sVresearching
p1959
I682
sVlands
p1960
I2689
sVcurling
p1961
I3405
sVburning
p1962
I1835
sVcommunication
p1963
I233
sVimage
p1964
I1575
sVoff-line
p1965
I3406
sVexcercise
p1966
I1836
sVaccounts
p1967
I1340
sVparties
p1968
I3407
sVelementary
p1969
I1644
sVwebsights
p1970
I1526
sVlastly
p1971
I261
sVnowadays
p1972
I1645
sVyour
p1973
I29
sVstare
p1974
I1646
sVhep
p1975
I3408
sVlog
p1976
I852
sVher
p1977
I230
sVarea
p1978
I1167
sVremoving
p1979
I2490
sVthere
p1980
I50
sVespeshaly
p1981
I3409
sVmeals
p1982
I2356
sVstart
p1983
I366
sVprogramers
p1984
I3410
sVmindless
p1985
I2283
sVlow
p1986
I1425
sVlot
p1987
I135
sVcultures
p1988
I820
sVbubble
p1989
I1838
sVchats
p1990
I1317
sVrelie
p1991
I2908
sVblinder
p1992
I2201
sVcomplete
p1993
I838
sVfanatic
p1994
I2690
sVpeaceful
p1995
I2893
sVexcersizing
p1996
I1870
sVcabinet
p1997
I2909
sVended
p1998
I1544
sVexecis
p1999
I3412
sVsurvived
p2000
I2284
sVmust'nt
p2001
I3413
sVtechnologies
p2002
I1839
sVtrying
p2003
I452
sVwith
p2004
I25
sVbuying
p2005
I995
sVhappening
p2006
I602
sVabused
p2007
I3414
sVpull
p2008
I1840
sVrush
p2009
I1249
sVromantic
p2010
I2691
sVrage
p2011
I3415
sVpacman
p2012
I2692
sVwhetehe
p2013
I3416
sVorganize
p2014
I1402
sVkeyboarding
p2015
I2493
sVagree
p2016
I240
sVstrongly
p2017
I877
sVgone
p2018
I746
sVrequired
p2019
I2546
sVad
p2020
I1576
sVvideos
p2021
I348
sVbannas
p2022
I3791
sVexhausted
p2023
I3419
sVcertain
p2024
I502
sVstealing
p2025
I3420
sVmoved
p2026
I725
sVal
p2027
I1841
sVdeep
p2028
I2026
sVgeneral
p2029
I1130
sVtraditons
p2030
I3421
sVas
p2031
I53
sVar
p2032
I895
sVtogether
p2033
I531
sVplanets
p2034
I2693
sVwalks
p2035
I1842
sVvidio
p2036
I3422
sVlifetime
p2037
I2028
sVspends
p2038
I878
sVfill
p2039
I1707
sVyoo
p2040
I2496
sVagain
p2041
I498
sVextending
p2042
I3957
sVbeyond
p2043
I1936
sVyoga
p2044
I1577
sVexcersicing
p2045
I2910
sVcyberbullying
p2046
I2075
sVgraduate
p2047
I2788
sVfield
p2048
I1476
sVbadly
p2049
I2817
sVsomeones
p2050
I2286
sVdementional
p2051
I3425
sVyou
p2052
I7
sVlazyness
p2053
I2790
sVpollutants
p2054
I3427
sVoffered
p2055
I2673
sVgaining
p2056
I1168
sVvocabulary
p2057
I1843
sVstudents
p2058
I186
sVa+
p2059
I2287
sVoverreact
p2060
I3839
sVa.
p2061
I2288
sVimportant
p2062
I172
sVfinaly
p2063
I2129
sVbuisnesses
p2064
I1578
sVstocks
p2065
I2915
sVsyber
p2066
I2029
sVnetwork
p2067
I3925
sVbuilding
p2068
I1647
sVthore
p2069
I3428
sVcalls
p2070
I1527
sVwife
p2071
I1528
sVhavinf
p2072
I3657
sVodds
p2073
I2130
sVprosper
p2074
I3800
sVwebsites
p2075
I169
sVhello
p2076
I1383
sVinstaed
p2077
I3355
sVimpossibility
p2078
I3429
sVu
p2079
I1708
sVdelets
p2080
I2476
sValright
p2081
I2696
sVoverseas
p2082
I2497
sVsongs
p2083
I1914
sVstarting
p2084
I919
sVcertantly
p2085
I3430
sVworld-wide-web
p2086
I2290
sVconsiquently
p2087
I3431
sVall
p2088
I39
sVcausen
p2089
I3432
sVforget
p2090
I520
sVpointing
p2091
I2498
sVcaused
p2092
I996
sVlack
p2093
I641
sVfingertips
p2094
I2010
sVnone
p2095
I2703
sVmonth
p2096
I954
sVcoach
p2097
I2860
sVwelfare
p2098
I3434
sVreson
p2099
I1063
sVfollow
p2100
I2916
sVfaster
p2101
I410
sVchildren
p2102
I180
sVcauses
p2103
I784
sVhunting
p2104
I3435
sVtrafic
p2105
I3927
sVtv
p2106
I1213
sVeduicationly
p2107
I3436
sVopportunities
p2108
I2132
sVlaughing
p2109
I2293
sVto
p2110
I5
sVprogram
p2111
I693
sVth
p2112
I2294
sVti
p2113
I1579
sVsafety
p2114
I1283
sVenjoying
p2115
I353
sVpresentation
p2116
I2133
sVactivities
p2117
I450
sVwoman
p2118
I1529
sVappointment
p2119
I2295
sVworse
p2120
I737
sVsitting
p2121
I360
sVvery
p2122
I104
sVfat
p2123
I477
sVsons
p2124
I2134
sVworst
p2125
I1341
sVdecide
p2126
I907
sVfall
p2127
I1192
sVawful
p2128
I2135
sVticket
p2129
I1119
sVdifference
p2130
I1477
sVobeisity
p2131
I2296
sVpeop
p2132
I3439
sVmothers
p2133
I2030
sVbecase
p2134
I2919
sVwords-per-minute
p2135
I2442
sVlist
p2136
I1120
sVjoined
p2137
I3440
sVnutricious
p2138
I3441
sVlarge
p2139
I1064
sVsand
p2140
I3442
sVsmall
p2141
I695
sVtear
p2142
I3220
sVhumongous
p2143
I3443
sVquicker
p2144
I747
sVneighborhood
p2145
I2031
sVportable
p2146
I2032
sVten
p2147
I821
sVtea
p2148
I3939
sVstreets
p2149
I1169
sVsync
p2150
I3444
sVpast
p2151
I666
sVrate
p2152
I822
sVinvention
p2153
I627
sVdesign
p2154
I2136
sVperspective
p2155
I2698
sVlawyer
p2156
I2699
sVpass
p2157
I896
sVfurther
p2158
I1319
sVchoices
p2159
I2996
sVseconed
p2160
I3446
sVinvestment
p2161
I3447
sVbelief
p2162
I2318
sVwhat
p2163
I69
sVsun
p2164
I1342
sVsum
p2165
I1761
sVyourselfs
p2166
I3448
sVissues
p2167
I1045
sVscientists
p2168
I1250
sVlearned
p2169
I496
sVracing
p2170
I2920
sVpublic
p2171
I728
sVoutgoing
p2172
I2033
sVfull
p2173
I748
sVhoure
p2174
I3449
sVloose
p2175
I799
sVanswers
p2176
I1648
sVhours
p2177
I257
sVsmartest
p2178
I2297
sVexcess
p2179
I3999
sVdirections
p2180
I738
sVstrong
p2181
I1007
sVsomthing
p2182
I2137
sVaddictions
p2183
I2501
sVpublisher
p2184
I2701
sVsearch
p2185
I314
sVare.important
p2186
I3798
sVinterent
p2187
I3451
sVahead
p2188
I1649
sVdifficulty
p2189
I2711
sVallows
p2190
I324
sVexperience
p2191
I669
sVamount
p2192
I388
sVhealthier
p2193
I998
sVarent
p2194
I1170
sVprofessor
p2195
I3121
sVsocial
p2196
I216
sVaction
p2197
I1375
sVrealtive
p2198
I3502
sVluck
p2199
I3454
sVoptions
p2200
I1530
sVheadache
p2201
I2515
sVaccoding
p2202
I3455
sVvia
p2203
I839
sVfollowed
p2204
I2299
sVfamily
p2205
I52
sVscreens
p2206
I1531
sVput
p2207
I362
sVindoors
p2208
I1846
sVyound
p2209
I3660
sVtoys
p2210
I2502
sVpulls
p2211
I3457
sVgosh
p2212
I3458
sVmechanic
p2213
I3898
sVattendance
p2214
I2300
sVeye
p2215
I271
sVtakes
p2216
I463
sVimproves
p2217
I1857
sVdestination
p2218
I2034
sVtexting
p2219
I1023
sVtwo
p2220
I394
sVresident
p2221
I2570
sVsizing
p2222
I3464
sVgorgeous
p2223
I2301
sVtaken
p2224
I703
sVkick
p2225
I2575
sVminor
p2226
I2922
sVmore
p2227
I47
sVteen
p2228
I749
sVfellow
p2229
I2027
sVknows
p2230
I717
sVcompany
p2231
I750
sVcorrected
p2232
I3462
sVcompetes
p2233
I3081
sVexcuse
p2234
I2503
sVbasically
p2235
I823
sVbroke
p2236
I1650
sVknown
p2237
I1343
sVnegativity
p2238
I3463
sVtown
p2239
I866
sVhardware
p2240
I3802
sVkeeping
p2241
I676
sVfatal
p2242
I2748
sVhour
p2243
I434
sVcanceled
p2244
I1927
sVscience
p2245
I652
sVsocialy
p2246
I3465
sVmall
p2247
I1376
sVparagraph
p2248
I1101
sVnine
p2249
I2504
sVresources
p2250
I1257
sVevolved
p2251
I2304
sVlearn
p2252
I75
sVmale
p2253
I2305
sVhistory
p2254
I547
sVbeautiful
p2255
I713
sVuploaded
p2256
I3664
sVcompare
p2257
I2036
sVneeding
p2258
I1762
sVprompt
p2259
I2307
sVstated
p2260
I773
sVwedsites
p2261
I3085
sVfunctions
p2262
I1976
sVshare
p2263
I765
sVtaht
p2264
I2712
sVstates
p2265
I575
sVnumbers
p2266
I1102
sVsense
p2267
I1580
sVlacks
p2268
I2505
sVdress
p2269
I3472
sV!
p2270
I65
sVinformation
p2271
I99
sVneeds
p2272
I430
sVt.v
p2273
I1171
sVbat
p2274
I3729
sV.with
p2275
I3475
sVrather
p2276
I458
sVcomfort
p2277
I1709
sVconducted
p2278
I2041
sVstayed
p2279
I1934
sVmaps
p2280
I811
sVpenpal
p2281
I2923
sVneede
p2282
I2705
sVfreshly
p2283
I3476
sVplant
p2284
I2308
sVshouldnt
p2285
I2924
sVokay
p2286
I1765
sVplans
p2287
I1065
sVrude
p2288
I1935
sVcommunicating
p2289
I683
sVacess
p2290
I1520
sVreplace
p2291
I3042
sVtries
p2292
I2506
sVplane
p2293
I1066
sVadventure
p2294
I2140
sVcoming
p2295
I766
sVbackyard
p2296
I3478
sVethics
p2297
I3479
sVsloppy
p2298
I2862
sVconcentrating
p2299
I2925
sVresponse
p2300
I2037
sVa
p2301
I9
sVshort
p2302
I2141
sVresipe
p2303
I2418
sVsence
p2304
I1521
sVeats
p2305
I2706
sVanytime
p2306
I1427
sVperhaps
p2307
I2172
sVpeaple
p2308
I3481
sVfundamental
p2309
I3482
sVmedia
p2310
I2483
sVputting
p2311
I1322
sVplaying
p2312
I232
sVpassages
p2313
I3483
sVhelp
p2314
I58
sVscoth
p2315
I3484
sVprogressing
p2316
I2785
sVsoon
p2317
I756
sVinstalled
p2318
I2310
sVattitude
p2319
I2311
sVpaper
p2320
I243
sVthrough
p2321
I245
sValthoug
p2322
I3485
sVreconnect
p2323
I1040
sVsigns
p2324
I2312
sVsuffer
p2325
I1193
sVits
p2326
I148
sVdont
p2327
I201
sVprobobility
p2328
I2525
sVstyle
p2329
I1766
sVarteries
p2330
I2707
sVrapidly
p2331
I1848
sVoutway
p2332
I2313
sVenvironmentalist
p2333
I2928
sVwasteing
p2334
I3488
sVactually
p2335
I359
sVlate
p2336
I1478
sVresort
p2337
I2929
sVindividuals
p2338
I3604
sVruining
p2339
I1581
sVthnk
p2340
I2895
sVbout
p2341
I2930
sVsoccer
p2342
I2142
sVmight
p2343
I252
sVexposeing
p2344
I3378
sVhurting
p2345
I1103
sVgood
p2346
I62
sVsomebody
p2347
I796
sVcalm
p2348
I2591
sVyo
p2349
I1651
sVchtrooms
p2350
I3669
sVfood
p2351
I702
sVshoppingfor
p2352
I3041
sVlargest
p2353
I2174
sVsocially
p2354
I1479
sVpredator
p2355
I2143
sVsertan
p2356
I3491
sVoponion
p2357
I2039
sVobeasity
p2358
I1767
sVchating
p2359
I970
sVmisuse
p2360
I3493
sVspeculate
p2361
I2315
sVthinkgs
p2362
I3399
sVbigger
p2363
I1122
sVsucked
p2364
I1849
sVregister
p2365
I3480
sVeasily
p2366
I521
sVeverytime
p2367
I1067
sValways
p2368
I188
sVcourses
p2369
I1582
sVstopped
p2370
I1284
sVpredators
p2371
I1172
sVturns
p2372
I2453
sVneccessary
p2373
I3494
sVfound
p2374
I356
sVnotes
p2375
I1349
sVheavy
p2376
I1652
sVstatus
p2377
I1850
sVharm
p2378
I2710
sVeveryone
p2379
I222
sVweight
p2380
I411
sVgeneration
p2381
I714
sVhouse
p2382
I331
sVenergy
p2383
I1194
sVhard
p2384
I399
sVreduce
p2385
I1851
sVidea
p2386
I400
sVconnect
p2387
I383
sVadays
p2388
I1653
sVpriority
p2389
I2981
sVbalance
p2390
I1303
sVevent
p2391
I1937
sVreally
p2392
I152
sVtakeing
p2393
I3496
sVdeals
p2394
I2968
sVmissed
p2395
I1251
sVwondered
p2396
I2144
sVsolved
p2397
I3221
sVbullied
p2398
I729
sVsince
p2399
I367
sVresearch
p2400
I219
sVeveryones
p2401
I3876
sVadmired
p2402
I3255
sVhealth
p2403
I304
sVprint
p2404
I688
sVoffline
p2405
I2316
sVissue
p2406
I505
sVoccurs
p2407
I2317
sVhighway
p2408
I3497
sVstrain
p2409
I2704
sVbully
p2410
I1320
sVrisen
p2411
I2319
sVdrifting
p2412
I3498
sVupon
p2413
I1263
sVyale
p2414
I2864
sVstory
p2415
I879
sVhouses
p2416
I1938
sVreason
p2417
I96
sVshoping
p2418
I2314
sVincluded
p2419
I2914
sVmembers
p2420
I535
sVimagine
p2421
I481
sVask
p2422
I371
sVteach
p2423
I197
sVbeginning
p2424
I2040
sVhavent
p2425
I1490
sVdustty
p2426
I3501
sVdefinition
p2427
I1852
sVunique
p2428
I2933
sVbenefits
p2429
I349
sVcomputers
p2430
I10
sVterrible
p2431
I1428
sVamerican
p2432
I1654
sVbusinessmen
p2433
I2513
sVw
p2434
I3503
sVcontry
p2435
I2320
sVnessary
p2436
I2321
sVfeed
p2437
I2934
sVwebcams
p2438
I1768
sVmajor
p2439
I785
sVunhealthy
p2440
I539
sVslipped
p2441
I3504
sVfeel
p2442
I264
sVrelate
p2443
I2145
sVbullies
p2444
I1711
sVnumber
p2445
I482
sVfancy
p2446
I2510
sVwell-known
p2447
I2511
sVsisters
p2448
I2786
sVdone
p2449
I320
sVmiss
p2450
I620
sVpages.com
p2451
I3507
sVguess
p2452
I1252
sVguest
p2453
I3506
sVintroduction
p2454
I1583
sVleading
p2455
I1344
sVinteract
p2456
I293
sVthreatening
p2457
I1853
sVleast
p2458
I327
sV@person
p2459
I157
sVtrend
p2460
I2103
sVwonderful
p2461
I656
sVexpand
p2462
I1889
sVstatement
p2463
I1712
sVrates
p2464
I3938
sVessays
p2465
I751
sVoverusing
p2466
I2935
sVchallenge
p2467
I2514
sVstore
p2468
I490
sVlisted
p2469
I2208
sVselling
p2470
I1429
sVoption
p2471
I1227
sVrelationship
p2472
I1143
sVbehind
p2473
I918
sVoposite
p2474
I2341
sVhotel
p2475
I2936
sVpark
p2476
I730
sVinterviewed
p2477
I2322
sVimmediate
p2478
I3508
sVvistor
p2479
I2714
sVluckily
p2480
I2937
sVpart
p2481
I375
sVboredom
p2482
I2521
sVdoctors
p2483
I1024
sVfocusing
p2484
I3510
sVbelieve
p2485
I164
sVstairs
p2486
I3511
sVtacking
p2487
I2042
sVimformation
p2488
I1285
sVkind
p2489
I1042
sVgrew
p2490
I1940
sVbag
p2491
I2620
sVgotten
p2492
I812
sVsorse
p2493
I3083
sVaims
p2494
I2938
sVyouth
p2495
I1195
sVfamilys
p2496
I767
sVrisks
p2497
I1534
sVoutdoors
p2498
I824
sVelaborate
p2499
I3036
sVtoward
p2500
I1432
sVinteractive
p2501
I1480
sVexercing
p2502
I2278
sVseaching
p2503
I3514
sVoutstanding
p2504
I2147
sVfights
p2505
I1584
sVages
p2506
I1025
sVbasicly
p2507
I3515
sVmuscles
p2508
I1713
sVexercise.dear
p2509
I3844
sVcarrys
p2510
I3932
sVchores
p2511
I2138
sVorders
p2512
I2044
sVsell
p2513
I1068
sVlie
p2514
I2516
sVrewrite
p2515
I3949
sVbuilt
p2516
I2045
sVdepending
p2517
I1714
sVself
p2518
I1253
sVmajority
p2519
I1196
sVcosts
p2520
I1830
sVesang.com
p2521
I3517
sVbuild
p2522
I867
sVsomtimes
p2523
I3518
sVfinding
p2524
I672
sVgym
p2525
I805
sVeducationally
p2526
I3854
sVplay
p2527
I153
sVtowards
p2528
I1430
sVelectric
p2529
I2940
sVquote
p2530
I2518
sVreach
p2531
I1535
sVchart
p2532
I1481
sVsteam
p2533
I3980
sVreact
p2534
I2941
sVmost
p2535
I141
sVvirus
p2536
I999
sVexperiences
p2537
I2519
sVplan
p2538
I1585
sVcmputer
p2539
I3614
sVnothing
p2540
I321
sVcertently
p2541
I3521
sVextremely
p2542
I709
sVfunnier
p2543
I3522
sV@percent
p2544
I127
sVbenift
p2545
I2324
sVexc
p2546
I3523
sVwindows
p2547
I2942
sVnoone
p2548
I2520
sVsometimes
p2549
I319
sVcover
p2550
I2325
sVbodies
p2551
I1523
sVclean
p2552
I1431
sVweigh
p2553
I2716
sVdiverse
p2554
I3646
sVmicrosoft
p2555
I1144
sVfamlies
p2556
I3524
sVgold
p2557
I3525
sVfone
p2558
I2943
sVfond
p2559
I2944
sVcelebrities
p2560
I2522
sVrealiable
p2561
I3150
sVwinter
p2562
I3262
sVbusinesses
p2563
I1104
sVdisapear
p2564
I3730
sVnewest
p2565
I2389
sVsweaty
p2566
I1871
sVfine
p2567
I768
sVfind
p2568
I119
sVimpact
p2569
I897
sVcell
p2570
I757
sVgiant
p2571
I2717
sVintenet
p2572
I2685
sVruin
p2573
I2046
sVwriter
p2574
I1586
sVcyber-bullies
p2575
I2523
sVexersise
p2576
I1854
sVstarters
p2577
I2149
sVfailed
p2578
I2326
sVgenerators
p2579
I2718
sVsurveyed
p2580
I2524
sVpretty
p2581
I1083
sVfactor
p2582
I2327
sVdiscuss
p2583
I1920
sVvocab
p2584
I3512
sVhis
p2585
I263
sVhit
p2586
I774
sVgains
p2587
I2945
sVdownpour
p2588
I3529
sVdependent
p2589
I1587
sVconnections
p2590
I2116
sVsunny
p2591
I1069
sVtrees
p2592
I632
sVcheaper
p2593
I2047
sVfamous
p2594
I854
sVofftine
p2595
I3364
sVvaluable
p2596
I631
sVtheft
p2597
I1715
sVreporters
p2598
I3532
sVhomeworks
p2599
I2526
sVduring
p2600
I1009
sVworkouts
p2601
I2527
sVhim
p2602
I533
sVeduactional
p2603
I3891
sVdistraction
p2604
I1855
sVenemy
p2605
I3533
sVtechnical
p2606
I3681
sVyour'e
p2607
I3534
sVpleasures
p2608
I2328
sVvoilence
p2609
I1664
sVdoubled
p2610
I2722
sVthngs
p2611
I3987
sVbanking
p2612
I3535
sVstored
p2613
I2787
sVcommon
p2614
I967
sVcan/should
p2615
I3536
sVactivity
p2616
I928
sVwrote
p2617
I2947
sVgrandmom
p2618
I3537
sVinsane
p2619
I3538
sVset
p2620
I721
sVart
p2621
I1769
sVguys
p2622
I2651
sVluxury
p2623
I2423
sVthrowing
p2624
I2528
sVintelligence
p2625
I2150
sVwrot
p2626
I3540
sVinterfear
p2627
I2421
sVculture
p2628
I684
sVsee
p2629
I86
sVdefense
p2630
I2151
sVsec
p2631
I1856
sVare
p2632
I14
sVsea
p2633
I2330
sVclose
p2634
I855
sVebay
p2635
I3944
sVderectory
p2636
I3542
sVacts
p2637
I2870
sVshower
p2638
I3544
sV#
p2639
I2332
sVconstently
p2640
I3576
sVthreats
p2641
I2152
sVvitamins
p2642
I3545
sVexpert
p2643
I1717
sVuseing
p2644
I1588
sVmovie
p2645
I1070
sVwow
p2646
I2530
sVcurrently
p2647
I2333
sVplease
p2648
I536
sVheading
p2649
I3087
sVlibraries
p2650
I2948
sVcase
p2651
I997
sVvitamind
p2652
I3546
sVvarious
p2653
I1770
sVprobably
p2654
I389
sVsoulmate
p2655
I3548
sVweekly
p2656
I3387
sVconditions
p2657
I2531
sVsupposed
p2658
I2043
sVavailable
p2659
I1046
sVrecently
p2660
I825
sVcreating
p2661
I1536
sVexcessive
p2662
I2998
sVmissing
p2663
I600
sVattention
p2664
I775
sVarms
p2665
I2590
sVsucceed
p2666
I2950
sVstrongers
p2667
I3553
sVrealationship
p2668
I3554
sVboth
p2669
I506
sVc
p2670
I1971
sVenables
p2671
I2610
sVlast
p2672
I236
sVimagein
p2673
I3556
sVforeigh
p2674
I2725
sVwithought
p2675
I2532
sVbarely
p2676
I1071
sVler
p2677
I3677
sVforeign
p2678
I1026
sVthom
p2679
I3557
sVteachs
p2680
I3389
sVconnection
p2681
I1589
sVbecame
p2682
I1228
sValot
p2683
I317
sVoovoo
p2684
I2726
sVgoverment
p2685
I1590
sVwitch
p2686
I1537
sVwhole
p2687
I357
sVfinds
p2688
I2951
sVpda
p2689
I3558
sVload
p2690
I3559
sVliked
p2691
I2533
sVbigdeal
p2692
I3813
sVhackers
p2693
I1433
sVpoint
p2694
I499
sVsimple
p2695
I522
sVre-coonect
p2696
I3561
sVelses
p2697
I2642
sVcommunity
p2698
I840
sVnewborn
p2699
I2728
sVfashion
p2700
I1505
sVsimply
p2701
I566
sVlikes
p2702
I1608
sVdecuss
p2703
I3562
sVbooks.the
p2704
I3563
sS'<num>'
p2705
I2
sVreamin
p2706
I3678
sVexpensive
p2707
I1197
sVheadaches
p2708
I2729
sVdecline
p2709
I2153
sVconsuming
p2710
I1105
sVfrinds
p2711
I3565
sVraise
p2712
I2730
sVwer
p2713
I3824
sVcreate
p2714
I613
sVvarieties
p2715
I3267
sVdue
p2716
I468
sVpracticly
p2717
I3568
sVearthquake
p2718
I964
sVhitting
p2719
I3569
sVwhom
p2720
I804
sVbuisness
p2721
I657
sVdident
p2722
I3570
sVcanser
p2723
I2334
sVcollected
p2724
I2534
sVsoftwares
p2725
I2643
sVmeeting
p2726
I769
sVhastle
p2727
I2715
sVflight
p2728
I1673
sVcomcast
p2729
I3890
sVboy
p2730
I1307
sVfire
p2731
I1377
sVchatted
p2732
I2731
sVgas
p2733
I1198
sVelse
p2734
I453
sVtowny
p2735
I3571
sVmoderation
p2736
I2335
sVlives
p2737
I204
sVliver
p2738
I2535
sVtornados
p2739
I3572
sVdemand
p2740
I2952
sVprices
p2741
I1718
sVtowns
p2742
I1591
sVsurveys
p2743
I3076
sVplants
p2744
I1293
sVbisnuess
p2745
I3326
sVstolen
p2746
I1043
sVlook
p2747
I130
sVgrains
p2748
I2732
sVstraight
p2749
I1145
sVbill
p2750
I624
sVtwenty
p2751
I2713
sVsmile
p2752
I3437
sVforgetting
p2753
I2336
sVwhile
p2754
I224
sVreplaced
p2755
I2733
sVhomework
p2756
I178
sVerror
p2757
I3031
sVfun
p2758
I162
sVexperance
p2759
I3577
sVtheres
p2760
I697
sVswim
p2761
I2337
sVexpierence
p2762
I2588
sVhoping
p2763
I2338
sVguilty
p2764
I2868
sVcalculator
p2765
I1859
sVstations
p2766
I2687
sVitself
p2767
I1199
sVpreteters
p2768
I3263
sVtriple
p2769
I3578
sVskype
p2770
I1173
sVready
p2771
I800
sVrid
p2772
I1018
sVtouch-screen
p2773
I3951
sVfunny
p2774
I1254
sVanymore
p2775
I548
sVbarnes
p2776
I3580
sVimprovement
p2777
I3564
sVcooridination
p2778
I1860
sVshorter
p2779
I2339
sVconcluding
p2780
I3450
sVobeie
p2781
I3500
sVvirtually
p2782
I3582
sVpeoples
p2783
I412
sVproducts
p2784
I1439
sVhigher
p2785
I982
sVused
p2786
I176
sVkeys
p2787
I1321
sVassignment
p2788
I1200
sVoverweight
p2789
I658
sVyesterday
p2790
I1719
sValert
p2791
I3584
sVexperence
p2792
I3585
sVfaught
p2793
I3586
sVmoment
p2794
I2049
sVlevels
p2795
I3513
sVmoving
p2796
I1123
sVuser
p2797
I1011
sVnecessity
p2798
I1255
sVclimb
p2799
I2751
sVrecent
p2800
I615
sVlacrosse
p2801
I2050
sVhows
p2802
I2735
sVlower
p2803
I1044
sVtask
p2804
I1106
sVinfertility
p2805
I3590
sVolder
p2806
I961
sVgoogle.com
p2807
I2537
sVanybody
p2808
I983
sVobviously
p2809
I1286
sVperson
p2810
I150
sVeles
p2811
I3591
sVdirection
p2812
I2894
sVspend
p2813
I115
sVknow
p2814
I74
sVsims
p2815
I2340
sVdieting
p2816
I3593
sVabilities
p2817
I1345
sVmom
p2818
I464
sVobserved
p2819
I3985
sVimportain
p2820
I3594
sVdistracting
p2821
I2051
sVshape
p2822
I1720
sVquestions
p2823
I642
sVusing
p2824
I138
sVlove
p2825
I386
sValternative
p2826
I2052
sVletting
p2827
I920
sVcut
p2828
I582
sValso
p2829
I40
sVworkers
p2830
I776
sVsire
p2831
I3684
sVadvertisements
p2832
I3596
sVexercising
p2833
I254
sVwrighting
p2834
I2736
sVsource
p2835
I448
sVcausing
p2836
I781
sVparents
p2837
I259
sVlocation
p2838
I1378
sVsnap
p2839
I2737
sVschoolwork
p2840
I1656
sVexcited
p2841
I2053
sVsurprised
p2842
I1592
sVamusing
p2843
I2211
sV...
p2844
I659
sVcustomers
p2845
I2955
sVwil
p2846
I2551
sVvictims
p2847
I2342
sVforces
p2848
I1902
sVemergency
p2849
I3599
sVbig
p2850
I267
sVcouple
p2851
I786
sVjudgement
p2852
I2054
sVcreations
p2853
I1818
sVgame
p2854
I279
sVtruely
p2855
I1483
sVwaching
p2856
I3602
sVreal-life
p2857
I2670
sVbit
p2858
I638
sVprojects
p2859
I379
sVhelpful
p2860
I248
sVcompers
p2861
I3976
sVlibeary
p2862
I3986
sVsuccess
p2863
I1941
sVshaped
p2864
I2956
sVda
p2865
I3970
sVstragedy
p2866
I3832
sVignore
p2867
I1689
sVcommunications
p2868
I2343
sVcontinue
p2869
I830
sVneatest
p2870
I2738
sVpopular
p2871
I955
sVdisorder
p2872
I3605
sVessential
p2873
I1124
sVveiws
p2874
I3606
sVpaly
p2875
I3607
sVgoogle
p2876
I537
sVoften
p2877
I500
sVabsolutely
p2878
I1484
sVfathers
p2879
I2538
sVfake
p2880
I1811
sVsome
p2881
I83
sVback
p2882
I297
sVtrends
p2883
I1942
sVexperienced
p2884
I2539
sVpalm
p2885
I2345
sVexamples
p2886
I1202
sVsight
p2887
I696
sVquizes
p2888
I3686
sVcurious
p2889
I1861
sVserver
p2890
I2739
sVourselves
p2891
I2235
sVneucence
p2892
I3612
sVand/or
p2893
I1379
sVcontacts
p2894
I1485
sVaffects
p2895
I868
sVdecision
p2896
I1203
sVpros
p2897
I1346
sVper
p2898
I1721
sVmultitask
p2899
I3613
sVpen
p2900
I1486
sVconnecting
p2901
I1487
sVeliminate
p2902
I2740
sVblackboard
p2903
I3519
sVdating
p2904
I1593
sVdoin
p2905
I3111
sVt
p2906
I1931
sVbe
p2907
I30
sVeating
p2908
I634
sVeffecting
p2909
I1771
sVmutch
p2910
I2346
sVhomeroom
p2911
I3395
sVstep
p2912
I801
sVnowhere
p2913
I3617
sVache
p2914
I2644
sVrelating
p2915
I3618
sVby
p2916
I100
sVpowerplants
p2917
I2154
sVon-eye
p2918
I3688
sVwildlife
p2919
I1862
sVanything
p2920
I198
sVnetflix
p2921
I3619
sVafternoons
p2922
I3330
sVcompleting
p2923
I2155
sVpplaeces
p2924
I3620
sVprobaly
p2925
I2645
sVrange
p2926
I2957
sVsoemone
p2927
I3114
sVhelpfulness
p2928
I3621
sVpediatrician
p2929
I2741
sVmessaging
p2930
I685
sVreplacement
p2931
I3834
sVblock
p2932
I1435
sVflying
p2933
I2000
sVseeing
p2934
I487
sVprocesor
p2935
I3622
sVplenty
p2936
I1740
sVterrorists
p2937
I3623
sVinto
p2938
I220
sVwithin
p2939
I1084
sVservers
p2940
I2347
sVappropriate
p2941
I1863
sVcontroversies
p2942
I3624
sVprimarily
p2943
I3625
sVbecauming
p2944
I3023
sVstatistics
p2945
I1436
sVarcade
p2946
I2348
sVsneaky
p2947
I3626
sVspending
p2948
I177
sVsmoothly
p2949
I2056
sVquestion
p2950
I527
sVfast
p2951
I364
sVthirdly
p2952
I836
sVcamera
p2953
I1440
sVaddicting
p2954
I841
sVforward
p2955
I1488
sV:
p2956
I514
sVscared
p2957
I3003
sVopens
p2958
I3629
sVfiles
p2959
I1538
sVhimself
p2960
I1943
sVinvite
p2961
I1722
sVranning
p2962
I3631
sVwhopping
p2963
I3827
sVrelaxed
p2964
I3632
sVface-to-face
p2965
I2366
sVhistory.com
p2966
I3633
sVproperly
p2967
I1944
sVlink
p2968
I3634
sVline
p2969
I787
sVdull
p2970
I1658
sVraising
p2971
I2958
sVposted
p2972
I1594
sVinfo
p2973
I704
sVrelavent
p2974
I3391
sVgeting
p2975
I1147
sVpeopel
p2976
I1287
sVsuspose
p2977
I3635
sVup
p2978
I72
sVus
p2979
I90
sVur
p2980
I1380
sVplanet
p2981
I968
sVcams
p2982
I3120
sV're
p2983
I292
sVquility
p2984
I3636
sVuh
p2985
I3637
sVmature
p2986
I3638
sVplanes
p2987
I2742
sVud
p2988
I3640
sVcalled
p2989
I591
sVyelled
p2990
I2352
sVbell
p2991
I3560
sVstoring
p2992
I1382
sVcamp
p2993
I2213
sVconstant
p2994
I2744
sVadults
p2995
I258
sVfullest
p2996
I3218
sVdefined
p2997
I3642
sVlikewise
p2998
I3643
sVcowboys
p2999
I3644
sVinfluence
p3000
I993
sVconvinience
p3001
I2353
sVcomming
p3002
I3645
sVe-mails
p3003
I842
sVsingle
p3004
I1107
sVwarning
p3005
I2961
sVevening
p3006
I2509
sVchat
p3007
I151
sVthier
p3008
I576
sVunhealth
p3009
I3962
sVrainy
p3010
I1772
sVcodes
p3011
I3647
sVnad
p3012
I2543
sVamounts
p3013
I1174
sVfixing
p3014
I2354
sVinvalid
p3015
I3648
sVplugged
p3016
I2055
sVapplication
p3017
I1659
sVactors
p3018
I2355
sVincome
p3019
I2962
sVaunt
p3020
I1618
sVactuly
p3021
I1864
sVnice
p3022
I469
sVexplaining
p3023
I2745
sVhelpfull
p3024
I1489
sVdevelope
p3025
I1773
sVusers
p3026
I716
sVdisision
p3027
I3650
sVaboulutly
p3028
I3651
sVproblems
p3029
I363
sVlong-lasting
p3030
I3402
sVhappends.
p3031
I3653
sVprepared
p3032
I2746
sVhelping
p3033
I611
sVmeaning
p3034
I1474
sVcyberspace
p3035
I2655
sVallowing
p3036
I1348
sVsides
p3037
I1837
sVago
p3038
I628
sVaggents
p3039
I3654
sVland
p3040
I3655
sVhappier
p3041
I1539
sVpractically
p3042
I2545
sVwebite
p3043
I3656
sVage
p3044
I459
sVteams
p3045
I2071
sVyoutube
p3046
I856
sVvisual
p3047
I3243
sVwalked
p3048
I1865
sVheath
p3049
I2548
sVappily
p3050
I3803
sVtrain
p3051
I2753
sVfar
p3052
I206
sVfresh
p3053
I503
sVrequires
p3054
I1946
sVhaving
p3055
I175
sVonce
p3056
I384
sVessay
p3057
I515
sVmodernizing
p3058
I3433
sVbroaden
p3059
I2357
sVresults
p3060
I1000
sVwebchat
p3061
I2358
sVenjoyable
p3062
I1866
sVactualy
p3063
I3694
sVbrainwashed
p3064
I3032
sVbrightside
p3065
I3659
sVgo
p3066
I49
sV@date
p3067
I244
sVexersice
p3068
I1012
sVseemed
p3069
I2359
sVcompact
p3070
I2549
sVvisiting
p3071
I2988
sVconcerned
p3072
I542
sVyoung
p3073
I543
sVsend
p3074
I365
sVsene
p3075
I3661
sVlanguages
p3076
I2964
sVonline-talking
p3077
I3662
sVhelps
p3078
I211
sVdislike
p3079
I3663
sVocmputer
p3080
I1867
sVfriendly
p3081
I1175
sVsent
p3082
I720
sVtramensly
p3083
I3467
sVbecaming
p3084
I3246
sVstatics
p3085
I2360
sVbreathing
p3086
I2966
sVpersuade
p3087
I2807
sVreaserching
p3088
I1932
sVconveinient
p3089
I2869
sVpendmanship
p3090
I3526
sVcontinues
p3091
I1148
sVlitting
p3092
I3665
sVimplore
p3093
I3461
sVunfortunet
p3094
I3666
sVfacebook
p3095
I199
sVtrough
p3096
I2550
sVfreind
p3097
I1868
sVtelling
p3098
I1013
sVpracticing
p3099
I1875
sVtimely
p3100
I3668
sVentire
p3101
I2057
sVexperiencing
p3102
I3670
sVbutton
p3103
I802
sVfewer
p3104
I2362
sVtry
p3105
I439
sVassignments
p3106
I857
sVrace
p3107
I1869
sVfasinating
p3108
I1974
sVobesity
p3109
I405
sVrack
p3110
I2363
sVpleas
p3111
I2969
sVopion
p3112
I1493
sVsmaller
p3113
I1540
sVeverythings
p3114
I3672
sVjump
p3115
I1948
sVkeywords
p3116
I3963
sVyou'r
p3117
I2970
sVvideo
p3118
I253
sVtraveling
p3119
I1125
sVpicked
p3120
I1949
sVreunion
p3121
I2221
sVdownload
p3122
I1041
sVclick
p3123
I519
sVdepression
p3124
I1027
sVthik
p3125
I3698
sVfont
p3126
I2148
sVplays
p3127
I1437
sVbusiness
p3128
I532
sVgiving
p3129
I567
sVincless
p3130
I3609
sVnetworks
p3131
I1229
sVaccess
p3132
I507
sVpaying
p3133
I1117
sVwaiting
p3134
I1126
sVpolluting
p3135
I3673
sVcapital
p3136
I2157
sVobvious
p3137
I2754
sV;
p3138
I390
sVbird
p3139
I3675
sVexercise
p3140
I182
sVbody
p3141
I568
sVinsteads
p3142
I3539
sVled
p3143
I2364
sVchose
p3144
I1716
sVdegree
p3145
I2972
sVleg
p3146
I3676
sVpushing
p3147
I2158
sVcommercial
p3148
I1660
sVfollowing
p3149
I1438
sVexplore
p3150
I777
sVobjects
p3151
I2749
sVlet
p3152
I249
sVothers
p3153
I251
sVconsideration
p3154
I1258
sVsafer
p3155
I2058
sVinvented
p3156
I938
sVkidnapped
p3157
I1176
sVextreme
p3158
I2750
sVnewpapper
p3159
I3934
sVmaken
p3160
I3679
sVgreat
p3161
I122
sVdidn
p3162
I3287
sVparites
p3163
I3680
sVcalenders
p3164
I3965
sVreceive
p3165
I1858
sVinvolved
p3166
I1384
sVleaving
p3167
I778
sVengine
p3168
I1517
sVpreffered
p3169
I3682
sVsurvey
p3170
I843
sVgrandchild
p3171
I3683
sVcousins
p3172
I1797
sVopinion
p3173
I231
sVresidents
p3174
I1872
sVmakes
p3175
I440
sVweekends
p3176
I1683
sVinvolves
p3177
I1873
sVthats
p3178
I341
sVnamed
p3179
I2059
sVsat
p3180
I3332
sVapple
p3181
I2159
sVgadget
p3182
I3490
sVdanger
p3183
I1014
sVpressed
p3184
I3575
sVmanage
p3185
I1201
sVexsistence
p3186
I3685
sVprivate
p3187
I1723
sVaddressed
p3188
I1951
sVweaker
p3189
I3701
sVdecrease
p3190
I2060
sVnames
p3191
I1912
sVapply
p3192
I2160
sVtools
p3193
I1385
sVexcersize
p3194
I921
sVstanding
p3195
I1597
sVuse
p3196
I55
sVfrom
p3197
I61
sVstream
p3198
I2274
sVdownlosd
p3199
I3689
sV&
p3200
I262
sVillegal
p3201
I1001
sVnegotive
p3202
I3690
sVcoffiene
p3203
I3971
sVbush
p3204
I3129
sVnext
p3205
I268
sVfew
p3206
I385
sVdoubt
p3207
I788
sVllike
p3208
I2292
sVthemselves
p3209
I604
sVhiding
p3210
I3842
sVdreams
p3211
I1995
sVsort
p3212
I880
sVpencil
p3213
I1259
sVstified
p3214
I3692
sVupcoming
p3215
I2752
sVcomparison
p3216
I2489
sVstarted
p3217
I635
sVbecomes
p3218
I1441
sVlibraies
p3219
I2719
sVabout
p3220
I38
sVstatting
p3221
I3693
sVcarrying
p3222
I1874
sVbaby
p3223
I1256
sVactual
p3224
I1952
sVaccount
p3225
I869
sVballs
p3226
I3695
sVanimals
p3227
I793
sVdeficiancy
p3228
I2367
sVsoceity
p3229
I1464
sVthis
p3230
I34
sVthir
p3231
I1598
sVride
p3232
I956
sVclients
p3233
I2368
sVbenefitting
p3234
I3697
sVwaisting
p3235
I1953
sV@state
p3236
I2973
sVcloged
p3237
I3699
sVanywhere
p3238
I1108
sVacually
p3239
I1954
sVthin
p3240
I3700
sVmeet
p3241
I368
sVdidnt
p3242
I813
sVcontrol
p3243
I908
sVdistractions
p3244
I2161
sVlinks
p3245
I1955
sVpainstakingly
p3246
I3702
sVprocess
p3247
I1002
sVlock
p3248
I1876
sVareason
p3249
I3703
sVslim
p3250
I3704
sVpurposes
p3251
I789
sVpieces
p3252
I2370
sVhigh
p3253
I494
sVeffectively
p3254
I2755
sVtag
p3255
I2162
sVpulling
p3256
I1661
sVsomething
p3257
I142
sVbones
p3258
I2756
sVhand-writing
p3259
I3445
sVformspring
p3260
I3706
sVpurposed
p3261
I3705
sVwriitng
p3262
I3528
sVeducational
p3263
I483
sVsyndrome
p3264
I2974
sVexcercising
p3265
I1532
sVsit
p3266
I346
sVdestroying
p3267
I1599
sVholds
p3268
I2061
sVedline
p3269
I2625
sVnumerous
p3270
I2949
sVforest
p3271
I2062
sVanimal
p3272
I1877
sVexersices
p3273
I2757
sVinstead
p3274
I192
sVintelligent
p3275
I1386
sVsim
p3276
I2976
sVstock
p3277
I1323
sVprofile
p3278
I2758
sVthee
p3279
I3918
sVstop
p3280
I286
sVleukemia
p3281
I2759
sVbenifit
p3282
I470
sVabuse
p3283
I1206
sVleisure
p3284
I3969
sVevry
p3285
I1878
sVfits
p3286
I3710
sVjumpstart
p3287
I3711
sVspelling
p3288
I1015
sVresent
p3289
I3530
sVefficiently
p3290
I1600
sVrelise
p3291
I3712
sVrealized
p3292
I1260
sValloe
p3293
I3713
sVlight
p3294
I826
sVbing
p3295
I2760
sVclasse
p3296
I3714
sVlines
p3297
I1724
sVarrow
p3298
I3070
sVservays
p3299
I3716
sVelement
p3300
I3717
sVhonestly
p3301
I1774
sVrealizes
p3302
I3718
sVallow
p3303
I227
sVfurious
p3304
I3760
sVaddiction
p3305
I569
sVhygene
p3306
I3720
sVfastest
p3307
I2946
sVsix
p3308
I2975
sVcoordinated
p3309
I2872
sVconcideration
p3310
I2552
sVareas
p3311
I2070
sVmove
p3312
I653
sVoutlook
p3313
I3721
sVproduced
p3314
I3722
sVcoltures
p3315
I3843
sVincluding
p3316
I1085
sVlooks
p3317
I1234
sVposotive
p3318
I1387
sVmentioned
p3319
I1662
sVbunch
p3320
I1028
sVperfect
p3321
I790
sVhelicopters
p3322
I1957
sValway
p3323
I1753
sVchosen
p3324
I2372
sVsurgeons
p3325
I3724
sVemails
p3326
I715
sVdegrees
p3327
I2374
sVchoose
p3328
I643
sV@time
p3329
I1109
sVamazed
p3330
I2682
sVbye
p3331
I2163
sVspreading
p3332
I2025
sVdad
p3333
I731
sVputs
p3334
I2623
sVexpirience
p3335
I2762
sVruined
p3336
I1511
sVgreater
p3337
I1204
sVpractice
p3338
I612
sVearn
p3339
I2619
sVinvitations
p3340
I2977
sVmention
p3341
I1029
sVcutting
p3342
I3816
sVcuse
p3343
I3731
sVbothering
p3344
I3732
sVkiss
p3345
I3733
sVhands
p3346
I665
sVfront
p3347
I636
sVseasy
p3348
I3879
sVday
p3349
I106
sVarticles
p3350
I1210
sVedit
p3351
I2164
sVwarned
p3352
I2763
sVblazing
p3353
I2764
sVnicely
p3354
I3735
sVquest
p3355
I3601
sVdoesnt
p3356
I1496
sVtruth
p3357
I1879
sVimportants
p3358
I3736
sVaccompanied
p3359
I3737
sVbills
p3360
I644
sVglasses
p3361
I939
sVcry
p3362
I2329
sVdoing
p3363
I156
sVglobe
p3364
I1958
sVrelated
p3365
I1350
sVkitchen
p3366
I3994
sVsociety
p3367
I111
sVbooks
p3368
I334
sVsion
p3369
I3738
sVour
p3370
I87
sVrobot
p3371
I3715
sVsexual
p3372
I2765
sVspecial
p3373
I1016
sVout
p3374
I60
sV'
p3375
I460
sVentertainment
p3376
I444
sVharrased
p3377
I1959
sVimpart
p3378
I2979
sVwich
p3379
I1177
sVelectronics
p3380
I1205
sVcause
p3381
I299
sVconvinient
p3382
I1960
sVmath
p3383
I629
sVshut
p3384
I1601
sVdictionary
p3385
I1541
sVinteractions
p3386
I2377
sVipod
p3387
I1127
sVcompletely
p3388
I1288
sVect
p3389
I1665
sVsurely
p3390
I1602
sVvacations
p3391
I1542
sVcutting-edge
p3392
I3739
sVcraving
p3393
I3740
sVshortest
p3394
I3741
sVscary
p3395
I1880
sVfrend
p3396
I2378
sVinteraction
p3397
I814
sVcured
p3398
I2408
sVprepare
p3399
I1933
sVsafty
p3400
I2554
sVcrashed
p3401
I1754
sVgeometry
p3402
I2555
sVcould
p3403
I73
sVscars
p3404
I3742
sVflorida
p3405
I1961
sVtimes
p3406
I457
sVconversation
p3407
I673
sVcures
p3408
I3905
sVmankind
p3409
I2007
sVexam
p3410
I2980
sVdistracted
p3411
I1475
sVexersicing
p3412
I2781
sVflyers
p3413
I3923
sVpowerful
p3414
I1963
sVscene
p3415
I3744
sVowned
p3416
I3745
sVstraining
p3417
I2379
sVimproving
p3418
I1666
sVsubmit
p3419
I2350
sVgatherings
p3420
I2380
sVleasing
p3421
I3747
sVadicting
p3422
I2491
sVquality
p3423
I1369
sVowning
p3424
I2766
sVreread
p3425
I3983
sVskatebording
p3426
I3373
sVefisent
p3427
I3930
sVprivacy
p3428
I1738
sVbears
p3429
I1964
sVunknown
p3430
I1776
sVmyspace
p3431
I438
sVsystem
p3432
I898
sVrelations
p3433
I2556
sVoline
p3434
I2768
sVtheir
p3435
I46
sVattack
p3436
I2557
sVintracting
p3437
I2723
sVrated
p3438
I3935
sVmessing
p3439
I2769
sVfinal
p3440
I562
sVpainful
p3441
I3751
sVinterests
p3442
I1881
sVshell
p3443
I2982
sVactivitys
p3444
I909
sVvirtualy
p3445
I3752
sVexactly
p3446
I1667
sVenvironmental
p3447
I2770
sVadveances
p3448
I3753
sVoverwhelming
p3449
I2558
sVupdating
p3450
I1965
sVwaist
p3451
I2008
sVloved
p3452
I732
sVeery
p3453
I3598
sVboring
p3454
I1217
sVbother
p3455
I1882
sVinventor
p3456
I3321
sVlimiting
p3457
I1743
sVpatients
p3458
I2837
sVindividual
p3459
I2724
sVloves
p3460
I2066
sVvisited
p3461
I2067
sVnegatively
p3462
I1388
sVbeuty
p3463
I2771
sVbet
p3464
I1289
sVdiseses
p3465
I3274
sVbeter
p3466
I2984
sVtroble
p3467
I2985
sVfalse
p3468
I1149
sVagian
p3469
I3845
sVreminders
p3470
I2371
sVcode
p3471
I3658
sVteenagers
p3472
I556
sVcomfortable
p3473
I2068
sVtonight
p3474
I3756
sVvack
p3475
I3757
sVhave
p3476
I22
sVsen
p3477
I2331
sVneed
p3478
I89
sVhaw
p3479
I3172
sVacademically
p3480
I2165
sVapparently
p3481
I2772
sVclearly
p3482
I845
sVmicrophone
p3483
I2560
sVdocuments
p3484
I1389
sVmin
p3485
I1492
sVrecap
p3486
I2999
sVstudying
p3487
I1003
sVprobly
p3488
I1261
sVneater
p3489
I1728
sVable
p3490
I171
sVguarentee
p3491
I3581
sVparks
p3492
I2069
sVemal
p3493
I3543
sVinstance
p3494
I1017
sVrelatives
p3495
I660
sVcordination
p3496
I516
sVwhich
p3497
I217
sV@organization
p3498
I93
sVencyclopedia
p3499
I1956
sVtechniques
p3500
I1619
sVworldwide
p3501
I1603
sVthet
p3502
I1705
sVunless
p3503
I1207
sVneccessity
p3504
I2166
sVwho
p3505
I107
sVnatrual
p3506
I2167
sVharmful
p3507
I674
sVconnected
p3508
I803
sVoppinun
p3509
I3863
sVmange
p3510
I2562
sVdevice
p3511
I517
sVhighschool
p3512
I2987
sVinivte
p3513
I3761
sVmedal
p3514
I3762
sVwhy
p3515
I91
sVsocializing
p3516
I1072
sVcellphone
p3517
I1290
sVhorrid
p3518
I2529
sVconsequences
p3519
I1747
sVeachother
p3520
I1966
sVgather
p3521
I1411
sVstronger
p3522
I1390
sVdisease
p3523
I1750
sVclasswork
p3524
I3764
sVface
p3525
I312
sVlooked
p3526
I2168
sVgraphs
p3527
I1208
sVbenighits
p3528
I3765
sVse
p3529
I3272
sVpictures
p3530
I303
sVnormally
p3531
I1324
sVfact
p3532
I380
sVinstent
p3533
I3766
sVphenominon
p3534
I3912
sVscrolls
p3535
I3780
sVrecess
p3536
I2451
sVchances
p3537
I2169
sVtext
p3538
I815
sVoverwhelmed
p3539
I3527
sVanyway
p3540
I1967
sVbring
p3541
I677
sVwoth
p3542
I3767
sVplanning
p3543
I1543
sVbedroom
p3544
I1604
sVsoldiers
p3545
I1086
sVfear
p3546
I2865
sVagrees
p3547
I1035
sVdecade
p3548
I3768
sVstaff
p3549
I2773
sVpromote
p3550
I2128
sVbased
p3551
I1442
sVknowledge
p3552
I401
sV(
p3553
I408
sVcontrols
p3554
I2774
sVshould
p3555
I116
sVbuttons
p3556
I1884
sVtape
p3557
I3770
sVbud
p3558
I2799
sVmarriage
p3559
I2323
sVbecasue
p3560
I2492
sVlocal
p3561
I209
sVhope
p3562
I313
sVmeant
p3563
I1605
sVhandle
p3564
I1885
sVwatching
p3565
I608
sVfamiliar
p3566
I2382
sVoverall
p3567
I910
sVlucky
p3568
I1414
sVwrint
p3569
I3772
sVacces
p3570
I1606
sVones
p3571
I423
sVwords
p3572
I557
sVwerent
p3573
I2563
sVcompute
p3574
I3849
sVnormaly
p3575
I3592
sVchips
p3576
I1779
sVendless
p3577
I1036
sVebsites
p3578
I3708
sVcourse
p3579
I834
sVshy
p3580
I2110
sVtaxes
p3581
I1391
sVcalling
p3582
I853
sVinfluenced
p3583
I1763
sVstuff
p3584
I323
sV@location
p3585
I95
sVshe
p3586
I234
sVwish
p3587
I1732
sVohio
p3588
I3774
sVrapped
p3589
I3775
sVfixed
p3590
I2776
sVview
p3591
I1128
sVknowing
p3592
I889
sVfreinds
p3593
I1545
sVnational
p3594
I1494
sVhumans
p3595
I911
sVwe
p3596
I48
sVcomputer
p3597
I18
sVarticals
p3598
I2828
sVskateboarding
p3599
I3776
sVinaproprate
p3600
I3777
sVbecaus
p3601
I2822
sVmulti-task
p3602
I3550
sVcloser
p3603
I1780
sVinterview
p3604
I1615
sVinteracting
p3605
I381
sVinfluiance
p3606
I3778
sVplaced
p3607
I3851
sVtend
p3608
I958
sVposative
p3609
I2777
sVstate
p3610
I626
sVcorrectly
p3611
I1668
sVhorrible
p3612
I959
sVlimit
p3613
I859
sVneither
p3614
I1969
sVemail
p3615
I308
sVbought
p3616
I2991
sVgreatful
p3617
I3779
sVends
p3618
I1886
sVmulti-tase
p3619
I3551
sVability
p3620
I322
sVviris
p3621
I3781
sVraped
p3622
I3189
sVimportance
p3623
I1970
sVvitamin
p3624
I1458
sVjob
p3625
I275
sVkey
p3626
I960
sVjog
p3627
I2992
sVgroup
p3628
I2082
sVprecious
p3629
I2565
sVmonitor
p3630
I1178
sVmannor
p3631
I3370
sVweell
p3632
I3019
sVinstant
p3633
I435
sVmycousin
p3634
I3783
sVpals
p3635
I3610
sVcareer
p3636
I1669
sVinformational
p3637
I1891
sVtaking
p3638
I344
sVescape
p3639
I2099
sVminds
p3640
I1121
sVtrips
p3641
I2072
sVetc
p3642
I418
sVadmit
p3643
I1670
sVguide-thinking
p3644
I3552
sVatleast
p3645
I2899
sVeveryweek
p3646
I3785
sVpassing
p3647
I1729
sVafraid
p3648
I2986
sVotherwise
p3649
I1642
sVcomment
p3650
I2778
sVdetailed
p3651
I3417
sVunclear
p3652
I2993
sVco
p3653
I2385
sVdiest
p3654
I3993
sVconclude
p3655
I1262
sVwall
p3656
I2994
sVca
p3657
I228
sVresulting
p3658
I3583
sVwalk
p3659
I558
sVbulllied
p3660
I3950
sVcarver
p3661
I3418
sVcoordinates
p3662
I2871
sVlaugh
p3663
I2779
sVnews
p3664
I288
sVgarde
p3665
I3358
sVtable
p3666
I1524
sVpoeple
p3667
I2063
sVblink
p3668
I2200
sVtecnology
p3669
I2499
sVaddition
p3670
I705
sVquiz
p3671
I2566
sVnetbook
p3672
I1373
sVslowly
p3673
I1179
sVtreat
p3674
I2567
sVhottest
p3675
I3788
sVwaste
p3676
I654
sVjusst
p3677
I3789
sVetc.com
p3678
I3790
sVfaced
p3679
I2839
sVshoulders
p3680
I2568
sVcontrolled
p3681
I2569
sVunparraellel
p3682
I3555
sVam
p3683
I241
sVsccial
p3684
I3792
sVsales
p3685
I2494
sVbrouchures
p3686
I3086
sVfinished
p3687
I1495
sVcenipeeds
p3688
I3793
sVdecreased
p3689
I2259
sVimproved
p3690
I1351
sVexersizing
p3691
I1782
sVan
p3692
I92
sVpresent
p3693
I1231
sVhomes
p3694
I969
sVtherefor
p3695
I2375
sVunlike
p3696
I2995
sVtypeing
p3697
I1671
sVoveruse
p3698
I1783
sVharder
p3699
I858
sVrectangular
p3700
I2073
sVwill
p3701
I64
sVsuport
p3702
I2386
sVmemorizing
p3703
I3796
sVaccesible
p3704
I1888
sVfault
p3705
I2092
sVfacabook
p3706
I3797
sVhandwriting
p3707
I816
sVinstantly
p3708
I1058
sVdiscoveries
p3709
I3799
sVat
p3710
I59
sVlayer
p3711
I1784
sVhand-eye
p3712
I166
sVphysicians
p3713
I3726
sValmost
p3714
I309
sVhobbies
p3715
I2782
sVthus
p3716
I1785
sVsite
p3717
I578
sVencouragement
p3718
I2171
sVprobebly
p3719
I3801
sVhelped
p3720
I449
sVoccupied
p3721
I2013
sVdrasticly
p3722
I2783
sVexcessively
p3723
I3804
sVwatched
p3724
I2285
sVpartner
p3725
I2784
sVsits
p3726
I3805
sVshooting
p3727
I2800
sVcomputeres
p3728
I3806
sV)
p3729
I328
sVbegan
p3730
I2571
sVradiation
p3731
I2173
sVlaziar
p3732
I2495
sVmember
p3733
I984
sVparts
p3734
I981
sVdigital
p3735
I2638
sVsmarter
p3736
I741
sVparty
p3737
I1291
sVmissunderstanding
p3738
I3893
sVgets
p3739
I779
sVdifficult
p3740
I827
sVinjured
p3741
I2074
sVcellphones
p3742
I985
sVball
p3743
I1004
sVbrag
p3744
I3996
sVemotionally
p3745
I3808
sVone-another
p3746
I3948
sVbale
p3747
I3809
sVdrink
p3748
I3810
sVdisagree
p3749
I929
sVeffect
p3750
I120
sVcoffe
p3751
I3811
sVbullying
p3752
I583
sVi.ming
p3753
I2727
sVstudent
p3754
I529
sVinfinite
p3755
I2387
sVfrequently
p3756
I1972
sVwarming
p3757
I1786
sVmiddlebury
p3758
I3812
sV'everything
p3759
I3147
sVoff
p3760
I195
sVfmaily
p3761
I2856
sVrecords
p3762
I2260
sVi
p3763
I19
sVafar
p3764
I2997
sVincredible
p3765
I2180
sVwell
p3766
I143
sVfighting
p3767
I1787
sVthought
p3768
I689
sVofs
p3769
I3815
sVcommand
p3770
I3817
sVenglish
p3771
I1546
sVfirstly
p3772
I881
sVposition
p3773
I1325
sVaudio
p3774
I3818
sVdrawing
p3775
I3819
sVlatest
p3776
I817
sVlest
p3777
I3820
sVresorce
p3778
I3821
sVinterneat
p3779
I2388
sVstores
p3780
I770
sVsafari
p3781
I2654
sVless
p3782
I163
sVmoments
p3783
I1890
sVaccurate
p3784
I2572
sVwaithing
p3785
I3734
sVok.
p3786
I2038
sVdose
p3787
I2573
sVsources
p3788
I937
sVmistakes
p3789
I1443
sVdistant
p3790
I1180
sVrooms
p3791
I899
sVcames
p3792
I3000
sVskill
p3793
I590
sVcoordination
p3794
I147
sVwether
p3795
I1030
sVweb
p3796
I335
sVexcersing
p3797
I1672
sVads
p3798
I2789
sVwed
p3799
I3822
sVsupply
p3800
I2175
sVsky
p3801
I3001
sVwen
p3802
I3823
sVhandy
p3803
I957
sVspinner
p3804
I2390
sVreasons
p3805
I165
sVadd
p3806
I1209
sVother
p3807
I78
sVsurromb
p3808
I3825
sVwet
p3809
I3826
sVusage
p3810
I780
sVearthquakes
p3811
I3002
sVsmart
p3812
I771
sVtests
p3813
I971
sVincreased
p3814
I1609
sVworlds
p3815
I2978
sVchecking
p3816
I940
sVdessision
p3817
I3286
sVscrenary
p3818
I3795
sVincreases
p3819
I2391
sVfive
p3820
I722
sVwhatever
p3821
I1010
sVdesk
p3822
I1264
sVpress
p3823
I1352
sVimmediately
p3824
I1973
sVexplainted
p3825
I3829
sVunneeded
p3826
I2911
sVoverdosed
p3827
I3830
sVdebatable
p3828
I3831
sVloss
p3829
I2576
sVtrash
p3830
I2912
sVnecessary
p3831
I1087
sVlike
p3832
I54
sVlost
p3833
I420
sVsizes
p3834
I2577
sVchairs
p3835
I3833
sVadmitted
p3836
I2791
sVlose
p3837
I497
sVbecome
p3838
I235
sVworks
p3839
I972
sVpage
p3840
I601
sVwonders
p3841
I1547
sVpoor
p3842
I2392
sVbecause
p3843
I35
sVsociaty
p3844
I1788
sVchatrooms
p3845
I1789
sVtwitter
p3846
I579
sVsearching
p3847
I882
sVlibrary
p3848
I326
sVbrian
p3849
I2761
sVgrowth
p3850
I3004
sVvia-email
p3851
I3264
sVproper
p3852
I1110
sVhome
p3853
I161
sVliking
p3854
I2578
sVhappens
p3855
I605
sVthroughout
p3856
I2048
sVfocused
p3857
I1950
sVobsessed
p3858
I2694
sVlead
p3859
I510
sVreativeness
p3860
I3335
sVliterally
p3861
I2393
sVavoid
p3862
I1265
sVhurricane
p3863
I2793
sVshone
p3864
I3835
sVe-mail
p3865
I391
sVleap
p3866
I3005
sVdoes
p3867
I208
sVhappend
p3868
I1947
sV?
p3869
I63
sVkidnappers
p3870
I2794
sVsleding
p3871
I3836
sVspesculative
p3872
I3837
sVblowing
p3873
I3838
sVzeros//
p3874
I3840
sVinaccurate
p3875
I2579
sVmouth
p3876
I3115
sVschedule
p3877
I1392
sVintell
p3878
I3097
sValthough
p3879
I523
sVincludes
p3880
I2913
sVpaste
p3881
I2176
sVthumbbook
p3882
I3841
sVsimpler
p3883
I2795
sVgained
p3884
I1151
sVsister
p3885
I1152
sVquarter
p3886
I3291
sVlifestyle
p3887
I900
sVasks
p3888
I2394
sVgetting
p3889
I181
sVuniverse
p3890
I3006
sVdeffinition
p3891
I2177
sVperks
p3892
I3007
sVpersuaded
p3893
I1975
sVpowerpoint
p3894
I1211
sVsoftware
p3895
I1266
sVown
p3896
I416
sVletters
p3897
I679
sVchildrens
p3898
I1730
sVwilderness
p3899
I3008
sVbillions
p3900
I2076
sVpostitive
p3901
I2695
sVweather
p3902
I511
sV.
p3903
I3
sVmere
p3904
I2395
sVnetworking
p3905
I580
sVadolescent
p3906
I2796
sVmuseum
p3907
I2580
sVpreasure
p3908
I3294
sVapps
p3909
I3009
sVspots
p3910
I2396
sVnoticed
p3911
I1292
sVboard
p3912
I1907
sVvaction
p3913
I2797
sVbiggest
p3914
I973
sVrumors
p3915
I1977
sVsolitare
p3916
I3282
sVnaturally
p3917
I2397
sVfunction
p3918
I1393
sVtricky
p3919
I2289
sVbuy
p3920
I350
sVbrowsing
p3921
I1993
sVchatting
p3922
I476
sVbrand
p3923
I2798
sVbut
p3924
I42
sVlowered
p3925
I3846
sVgain
p3926
I528
sVgrate
p3927
I3847
sVediting
p3928
I1731
sVlife..
p3929
I3848
sVeat
p3930
I478
sVwitness
p3931
I2376
sVhe
p3932
I173
sVcount
p3933
I1610
sVmade
p3934
I338
sVwise
p3935
I2077
sVexirsis
p3936
I3924
sVplaces
p3937
I160
sVarnt
p3938
I3010
sVwhether
p3939
I479
sVdangerous
p3940
I422
sVsmooth
p3941
I2398
sVprobley
p3942
I3850
sVarctech
p3943
I3304
sVexcitement
p3944
I2399
sVrecord
p3945
I2178
sVbelow
p3946
I2179
sVconvince
p3947
I1611
sVstories
p3948
I1129
sVproblem
p3949
I242
sVpiece
p3950
I758
sVminutes
p3951
I436
sVcontribute
p3952
I1612
sVconsumed
p3953
I2351
sVguy
p3954
I2454
sVgoodness
p3955
I3103
sVfamilies
p3956
I358
sVeducation
p3957
I445
sVgirl
p3958
I707
sVeffected
p3959
I1394
sVplanting
p3960
I3853
sVspell
p3961
I1725
sVcompared
p3962
I1395
sV'll
p3963
I378
sVloud
p3964
I2606
sVvariety
p3965
I1153
sVdeadly
p3966
I1613
sVpercent
p3967
I1353
sVvirtual
p3968
I1497
sVlately
p3969
I2400
sVopinon
p3970
I2574
sVunder-appreciated
p3971
I2583
sVbook
p3972
I255
sVcompares
p3973
I3855
sVdetails
p3974
I1396
sVsick
p3975
I1047
sVclicks
p3976
I3011
sVcontacting
p3977
I2181
sVconclusion
p3978
I277
sVestatic
p3979
I3856
sVjunk
p3980
I1354
sVkinds
p3981
I1131
sVveiw
p3982
I3857
sVworker
p3983
I3858
sVstay
p3984
I203
sVbuety
p3985
I3870
sVchance
p3986
I461
sVsped
p3987
I3867
sVcyberbullied
p3988
I2182
sVfriends
p3989
I51
sVgoin
p3990
I2801
sVsearcher
p3991
I3859
sVaccidents
p3992
I2802
sVjacks
p3993
I3630
sVblogs
p3994
I2584
sVfactors
p3995
I2876
sVusefull
p3996
I2401
sVtryout
p3997
I3860
sVunderstand
p3998
I376
sVmiltary
p3999
I2697
sVgardens
p4000
I3861
s.